
bin/KERNEL.BIN:     file format elf32-i386


Disassembly of section .text:

c0000000 <scroll.part.0>:
c0000000:	0f b6 0d 21 80 00 c0 	movzbl 0xc0008021,%ecx
c0000007:	56                   	push   %esi
c0000008:	53                   	push   %ebx
c0000009:	8b 1d 10 70 00 c0    	mov    0xc0007010,%ebx
c000000f:	89 ce                	mov    %ecx,%esi
c0000011:	8d 8b 00 0f 00 00    	lea    0xf00(%ebx),%ecx
c0000017:	89 d8                	mov    %ebx,%eax
c0000019:	c1 e6 08             	shl    $0x8,%esi
c000001c:	8d 74 26 00          	lea    0x0(%esi,%eiz,1),%esi
c0000020:	0f b7 90 a0 00 00 00 	movzwl 0xa0(%eax),%edx
c0000027:	83 c0 02             	add    $0x2,%eax
c000002a:	66 89 50 fe          	mov    %dx,-0x2(%eax)
c000002e:	39 c1                	cmp    %eax,%ecx
c0000030:	75 ee                	jne    c0000020 <scroll.part.0+0x20>
c0000032:	83 ce 20             	or     $0x20,%esi
c0000035:	8d 93 a0 0f 00 00    	lea    0xfa0(%ebx),%edx
c000003b:	89 f1                	mov    %esi,%ecx
c000003d:	8d 76 00             	lea    0x0(%esi),%esi
c0000040:	66 89 08             	mov    %cx,(%eax)
c0000043:	83 c0 02             	add    $0x2,%eax
c0000046:	39 d0                	cmp    %edx,%eax
c0000048:	75 f6                	jne    c0000040 <scroll.part.0+0x40>
c000004a:	5b                   	pop    %ebx
c000004b:	c6 05 22 80 00 c0 18 	movb   $0x18,0xc0008022
c0000052:	5e                   	pop    %esi
c0000053:	c3                   	ret    
c0000054:	8d b6 00 00 00 00    	lea    0x0(%esi),%esi
c000005a:	8d bf 00 00 00 00    	lea    0x0(%edi),%edi

c0000060 <itoa.part.1>:
c0000060:	85 c0                	test   %eax,%eax
c0000062:	57                   	push   %edi
c0000063:	89 cf                	mov    %ecx,%edi
c0000065:	56                   	push   %esi
c0000066:	53                   	push   %ebx
c0000067:	74 51                	je     c00000ba <itoa.part.1+0x5a>
c0000069:	89 d6                	mov    %edx,%esi
c000006b:	31 db                	xor    %ebx,%ebx
c000006d:	8d 76 00             	lea    0x0(%esi),%esi
c0000070:	31 d2                	xor    %edx,%edx
c0000072:	f7 f6                	div    %esi
c0000074:	0f b6 8a 00 70 00 c0 	movzbl -0x3fff9000(%edx),%ecx
c000007b:	89 da                	mov    %ebx,%edx
c000007d:	83 c3 01             	add    $0x1,%ebx
c0000080:	88 8b ff 7f 00 c0    	mov    %cl,-0x3fff8001(%ebx)
c0000086:	85 c0                	test   %eax,%eax
c0000088:	75 e6                	jne    c0000070 <itoa.part.1+0x10>
c000008a:	89 fe                	mov    %edi,%esi
c000008c:	8d 82 ff 7f 00 c0    	lea    -0x3fff8001(%edx),%eax
c0000092:	eb 12                	jmp    c00000a6 <itoa.part.1+0x46>
c0000094:	8d b6 00 00 00 00    	lea    0x0(%esi),%esi
c000009a:	8d bf 00 00 00 00    	lea    0x0(%edi),%edi
c00000a0:	0f b6 08             	movzbl (%eax),%ecx
c00000a3:	83 e8 01             	sub    $0x1,%eax
c00000a6:	88 0e                	mov    %cl,(%esi)
c00000a8:	83 c6 01             	add    $0x1,%esi
c00000ab:	3d ff 7f 00 c0       	cmp    $0xc0007fff,%eax
c00000b0:	75 ee                	jne    c00000a0 <itoa.part.1+0x40>
c00000b2:	c6 04 1f 00          	movb   $0x0,(%edi,%ebx,1)
c00000b6:	5b                   	pop    %ebx
c00000b7:	5e                   	pop    %esi
c00000b8:	5f                   	pop    %edi
c00000b9:	c3                   	ret    
c00000ba:	31 db                	xor    %ebx,%ebx
c00000bc:	eb f4                	jmp    c00000b2 <itoa.part.1+0x52>
c00000be:	66 90                	xchg   %ax,%ax

c00000c0 <itoa_s.part.2>:
c00000c0:	85 c0                	test   %eax,%eax
c00000c2:	53                   	push   %ebx
c00000c3:	78 0b                	js     c00000d0 <itoa_s.part.2+0x10>
c00000c5:	75 16                	jne    c00000dd <itoa_s.part.2+0x1d>
c00000c7:	c6 01 30             	movb   $0x30,(%ecx)
c00000ca:	c6 41 01 00          	movb   $0x0,0x1(%ecx)
c00000ce:	5b                   	pop    %ebx
c00000cf:	c3                   	ret    
c00000d0:	8d 59 01             	lea    0x1(%ecx),%ebx
c00000d3:	c6 01 2d             	movb   $0x2d,(%ecx)
c00000d6:	f7 d8                	neg    %eax
c00000d8:	89 d9                	mov    %ebx,%ecx
c00000da:	5b                   	pop    %ebx
c00000db:	eb 83                	jmp    c0000060 <itoa.part.1>
c00000dd:	89 cb                	mov    %ecx,%ebx
c00000df:	eb f7                	jmp    c00000d8 <itoa_s.part.2+0x18>
c00000e1:	eb 0d                	jmp    c00000f0 <debug_update_cur>
c00000e3:	90                   	nop
c00000e4:	90                   	nop
c00000e5:	90                   	nop
c00000e6:	90                   	nop
c00000e7:	90                   	nop
c00000e8:	90                   	nop
c00000e9:	90                   	nop
c00000ea:	90                   	nop
c00000eb:	90                   	nop
c00000ec:	90                   	nop
c00000ed:	90                   	nop
c00000ee:	90                   	nop
c00000ef:	90                   	nop

c00000f0 <debug_update_cur>:
c00000f0:	53                   	push   %ebx
c00000f1:	83 ec 08             	sub    $0x8,%esp
c00000f4:	8b 44 24 14          	mov    0x14(%esp),%eax
c00000f8:	8d 1c 85 00 00 00 00 	lea    0x0(,%eax,4),%ebx
c00000ff:	01 c3                	add    %eax,%ebx
c0000101:	c1 e3 04             	shl    $0x4,%ebx
c0000104:	66 03 5c 24 10       	add    0x10(%esp),%bx
c0000109:	e8 e2 10 00 00       	call   c00011f0 <disable>
c000010e:	83 ec 08             	sub    $0x8,%esp
c0000111:	6a 0e                	push   $0xe
c0000113:	68 d4 03 00 00       	push   $0x3d4
c0000118:	e8 a3 10 00 00       	call   c00011c0 <outportb>
c000011d:	58                   	pop    %eax
c000011e:	5a                   	pop    %edx
c000011f:	0f b6 c7             	movzbl %bh,%eax
c0000122:	0f b6 db             	movzbl %bl,%ebx
c0000125:	50                   	push   %eax
c0000126:	68 d5 03 00 00       	push   $0x3d5
c000012b:	e8 90 10 00 00       	call   c00011c0 <outportb>
c0000130:	59                   	pop    %ecx
c0000131:	58                   	pop    %eax
c0000132:	6a 0f                	push   $0xf
c0000134:	68 d4 03 00 00       	push   $0x3d4
c0000139:	e8 82 10 00 00       	call   c00011c0 <outportb>
c000013e:	58                   	pop    %eax
c000013f:	5a                   	pop    %edx
c0000140:	53                   	push   %ebx
c0000141:	68 d5 03 00 00       	push   $0x3d5
c0000146:	e8 75 10 00 00       	call   c00011c0 <outportb>
c000014b:	83 c4 18             	add    $0x18,%esp
c000014e:	5b                   	pop    %ebx
c000014f:	e9 8c 10 00 00       	jmp    c00011e0 <enable>
c0000154:	8d b6 00 00 00 00    	lea    0x0(%esi),%esi
c000015a:	8d bf 00 00 00 00    	lea    0x0(%edi),%edi

c0000160 <scroll>:
c0000160:	80 3d 22 80 00 c0 18 	cmpb   $0x18,0xc0008022
c0000167:	76 07                	jbe    c0000170 <scroll+0x10>
c0000169:	e9 92 fe ff ff       	jmp    c0000000 <scroll.part.0>
c000016e:	66 90                	xchg   %ax,%ax
c0000170:	f3 c3                	repz ret 
c0000172:	8d b4 26 00 00 00 00 	lea    0x0(%esi,%eiz,1),%esi
c0000179:	8d bc 27 00 00 00 00 	lea    0x0(%edi,%eiz,1),%edi

c0000180 <debug_putc>:
c0000180:	57                   	push   %edi
c0000181:	56                   	push   %esi
c0000182:	53                   	push   %ebx
c0000183:	8b 54 24 10          	mov    0x10(%esp),%edx
c0000187:	80 fa 08             	cmp    $0x8,%dl
c000018a:	0f 84 c0 00 00 00    	je     c0000250 <debug_putc+0xd0>
c0000190:	80 fa 09             	cmp    $0x9,%dl
c0000193:	74 5b                	je     c00001f0 <debug_putc+0x70>
c0000195:	80 fa 0d             	cmp    $0xd,%dl
c0000198:	0f 84 d2 00 00 00    	je     c0000270 <debug_putc+0xf0>
c000019e:	80 fa 0a             	cmp    $0xa,%dl
c00001a1:	0f 84 d9 00 00 00    	je     c0000280 <debug_putc+0x100>
c00001a7:	80 fa 1f             	cmp    $0x1f,%dl
c00001aa:	0f 86 f0 00 00 00    	jbe    c00002a0 <debug_putc+0x120>
c00001b0:	0f b6 35 22 80 00 c0 	movzbl 0xc0008022,%esi
c00001b7:	0f b6 3d 23 80 00 c0 	movzbl 0xc0008023,%edi
c00001be:	0f b6 d2             	movzbl %dl,%edx
c00001c1:	8d 1c b6             	lea    (%esi,%esi,4),%ebx
c00001c4:	89 f0                	mov    %esi,%eax
c00001c6:	0f b6 35 21 80 00 c0 	movzbl 0xc0008021,%esi
c00001cd:	c1 e3 04             	shl    $0x4,%ebx
c00001d0:	01 fb                	add    %edi,%ebx
c00001d2:	c1 e6 08             	shl    $0x8,%esi
c00001d5:	09 f2                	or     %esi,%edx
c00001d7:	8b 35 10 70 00 c0    	mov    0xc0007010,%esi
c00001dd:	66 89 14 5e          	mov    %dx,(%esi,%ebx,2)
c00001e1:	8d 57 01             	lea    0x1(%edi),%edx
c00001e4:	88 15 23 80 00 c0    	mov    %dl,0xc0008023
c00001ea:	eb 1e                	jmp    c000020a <debug_putc+0x8a>
c00001ec:	8d 74 26 00          	lea    0x0(%esi,%eiz,1),%esi
c00001f0:	0f b6 05 23 80 00 c0 	movzbl 0xc0008023,%eax
c00001f7:	8d 50 08             	lea    0x8(%eax),%edx
c00001fa:	0f b6 05 22 80 00 c0 	movzbl 0xc0008022,%eax
c0000201:	83 e2 f8             	and    $0xfffffff8,%edx
c0000204:	88 15 23 80 00 c0    	mov    %dl,0xc0008023
c000020a:	80 fa 4f             	cmp    $0x4f,%dl
c000020d:	76 0f                	jbe    c000021e <debug_putc+0x9e>
c000020f:	83 c0 01             	add    $0x1,%eax
c0000212:	c6 05 23 80 00 c0 00 	movb   $0x0,0xc0008023
c0000219:	a2 22 80 00 c0       	mov    %al,0xc0008022
c000021e:	3c 18                	cmp    $0x18,%al
c0000220:	76 0c                	jbe    c000022e <debug_putc+0xae>
c0000222:	e8 d9 fd ff ff       	call   c0000000 <scroll.part.0>
c0000227:	0f b6 05 22 80 00 c0 	movzbl 0xc0008022,%eax
c000022e:	83 ec 08             	sub    $0x8,%esp
c0000231:	0f b6 c0             	movzbl %al,%eax
c0000234:	50                   	push   %eax
c0000235:	0f b6 05 23 80 00 c0 	movzbl 0xc0008023,%eax
c000023c:	50                   	push   %eax
c000023d:	e8 ae fe ff ff       	call   c00000f0 <debug_update_cur>
c0000242:	83 c4 10             	add    $0x10,%esp
c0000245:	5b                   	pop    %ebx
c0000246:	5e                   	pop    %esi
c0000247:	5f                   	pop    %edi
c0000248:	c3                   	ret    
c0000249:	8d b4 26 00 00 00 00 	lea    0x0(%esi,%eiz,1),%esi
c0000250:	0f b6 15 23 80 00 c0 	movzbl 0xc0008023,%edx
c0000257:	84 d2                	test   %dl,%dl
c0000259:	74 1c                	je     c0000277 <debug_putc+0xf7>
c000025b:	83 ea 01             	sub    $0x1,%edx
c000025e:	0f b6 05 22 80 00 c0 	movzbl 0xc0008022,%eax
c0000265:	88 15 23 80 00 c0    	mov    %dl,0xc0008023
c000026b:	eb 9d                	jmp    c000020a <debug_putc+0x8a>
c000026d:	8d 76 00             	lea    0x0(%esi),%esi
c0000270:	c6 05 23 80 00 c0 00 	movb   $0x0,0xc0008023
c0000277:	0f b6 05 22 80 00 c0 	movzbl 0xc0008022,%eax
c000027e:	eb 9e                	jmp    c000021e <debug_putc+0x9e>
c0000280:	0f b6 05 22 80 00 c0 	movzbl 0xc0008022,%eax
c0000287:	c6 05 23 80 00 c0 00 	movb   $0x0,0xc0008023
c000028e:	83 c0 01             	add    $0x1,%eax
c0000291:	a2 22 80 00 c0       	mov    %al,0xc0008022
c0000296:	eb 86                	jmp    c000021e <debug_putc+0x9e>
c0000298:	90                   	nop
c0000299:	8d b4 26 00 00 00 00 	lea    0x0(%esi,%eiz,1),%esi
c00002a0:	0f b6 05 22 80 00 c0 	movzbl 0xc0008022,%eax
c00002a7:	0f b6 15 23 80 00 c0 	movzbl 0xc0008023,%edx
c00002ae:	e9 57 ff ff ff       	jmp    c000020a <debug_putc+0x8a>
c00002b3:	8d b6 00 00 00 00    	lea    0x0(%esi),%esi
c00002b9:	8d bc 27 00 00 00 00 	lea    0x0(%edi,%eiz,1),%edi

c00002c0 <itoa>:
c00002c0:	8b 44 24 04          	mov    0x4(%esp),%eax
c00002c4:	8b 54 24 08          	mov    0x8(%esp),%edx
c00002c8:	8b 4c 24 0c          	mov    0xc(%esp),%ecx
c00002cc:	85 c0                	test   %eax,%eax
c00002ce:	74 10                	je     c00002e0 <itoa+0x20>
c00002d0:	83 fa 10             	cmp    $0x10,%edx
c00002d3:	77 0b                	ja     c00002e0 <itoa+0x20>
c00002d5:	e9 86 fd ff ff       	jmp    c0000060 <itoa.part.1>
c00002da:	8d b6 00 00 00 00    	lea    0x0(%esi),%esi
c00002e0:	c6 01 30             	movb   $0x30,(%ecx)
c00002e3:	c6 41 01 00          	movb   $0x0,0x1(%ecx)
c00002e7:	c3                   	ret    
c00002e8:	90                   	nop
c00002e9:	8d b4 26 00 00 00 00 	lea    0x0(%esi,%eiz,1),%esi

c00002f0 <itoa_s>:
c00002f0:	8b 54 24 08          	mov    0x8(%esp),%edx
c00002f4:	8b 44 24 04          	mov    0x4(%esp),%eax
c00002f8:	8b 4c 24 0c          	mov    0xc(%esp),%ecx
c00002fc:	83 fa 10             	cmp    $0x10,%edx
c00002ff:	77 0f                	ja     c0000310 <itoa_s+0x20>
c0000301:	e9 ba fd ff ff       	jmp    c00000c0 <itoa_s.part.2>
c0000306:	8d 76 00             	lea    0x0(%esi),%esi
c0000309:	8d bc 27 00 00 00 00 	lea    0x0(%edi,%eiz,1),%edi
c0000310:	f3 c3                	repz ret 
c0000312:	8d b4 26 00 00 00 00 	lea    0x0(%esi,%eiz,1),%esi
c0000319:	8d bc 27 00 00 00 00 	lea    0x0(%edi,%eiz,1),%edi

c0000320 <debug_set_color>:
c0000320:	8b 54 24 04          	mov    0x4(%esp),%edx
c0000324:	0f b6 05 21 80 00 c0 	movzbl 0xc0008021,%eax
c000032b:	88 15 21 80 00 c0    	mov    %dl,0xc0008021
c0000331:	c3                   	ret    
c0000332:	8d b4 26 00 00 00 00 	lea    0x0(%esi,%eiz,1),%esi
c0000339:	8d bc 27 00 00 00 00 	lea    0x0(%edi,%eiz,1),%edi

c0000340 <debug_goto_xy>:
c0000340:	0f b6 15 23 80 00 c0 	movzbl 0xc0008023,%edx
c0000347:	8b 44 24 04          	mov    0x4(%esp),%eax
c000034b:	8b 4c 24 08          	mov    0x8(%esp),%ecx
c000034f:	80 fa 50             	cmp    $0x50,%dl
c0000352:	77 08                	ja     c000035c <debug_goto_xy+0x1c>
c0000354:	0f b6 d0             	movzbl %al,%edx
c0000357:	a2 23 80 00 c0       	mov    %al,0xc0008023
c000035c:	0f b6 05 22 80 00 c0 	movzbl 0xc0008022,%eax
c0000363:	3c 19                	cmp    $0x19,%al
c0000365:	77 09                	ja     c0000370 <debug_goto_xy+0x30>
c0000367:	0f b6 c1             	movzbl %cl,%eax
c000036a:	88 0d 22 80 00 c0    	mov    %cl,0xc0008022
c0000370:	89 44 24 08          	mov    %eax,0x8(%esp)
c0000374:	89 54 24 04          	mov    %edx,0x4(%esp)
c0000378:	e9 73 fd ff ff       	jmp    c00000f0 <debug_update_cur>
c000037d:	8d 76 00             	lea    0x0(%esi),%esi

c0000380 <debug_clr_scr>:
c0000380:	83 ec 0c             	sub    $0xc,%esp
c0000383:	a1 10 70 00 c0       	mov    0xc0007010,%eax
c0000388:	0f b7 54 24 10       	movzwl 0x10(%esp),%edx
c000038d:	8d 88 a0 0f 00 00    	lea    0xfa0(%eax),%ecx
c0000393:	c1 e2 08             	shl    $0x8,%edx
c0000396:	83 ca 20             	or     $0x20,%edx
c0000399:	8d b4 26 00 00 00 00 	lea    0x0(%esi,%eiz,1),%esi
c00003a0:	66 89 10             	mov    %dx,(%eax)
c00003a3:	83 c0 02             	add    $0x2,%eax
c00003a6:	39 c1                	cmp    %eax,%ecx
c00003a8:	75 f6                	jne    c00003a0 <debug_clr_scr+0x20>
c00003aa:	83 ec 08             	sub    $0x8,%esp
c00003ad:	6a 00                	push   $0x0
c00003af:	6a 00                	push   $0x0
c00003b1:	e8 8a ff ff ff       	call   c0000340 <debug_goto_xy>
c00003b6:	83 c4 1c             	add    $0x1c,%esp
c00003b9:	c3                   	ret    
c00003ba:	8d b6 00 00 00 00    	lea    0x0(%esi),%esi

c00003c0 <debug_puts>:
c00003c0:	56                   	push   %esi
c00003c1:	53                   	push   %ebx
c00003c2:	83 ec 04             	sub    $0x4,%esp
c00003c5:	8b 74 24 10          	mov    0x10(%esp),%esi
c00003c9:	85 f6                	test   %esi,%esi
c00003cb:	74 36                	je     c0000403 <debug_puts+0x43>
c00003cd:	31 db                	xor    %ebx,%ebx
c00003cf:	eb 22                	jmp    c00003f3 <debug_puts+0x33>
c00003d1:	eb 0d                	jmp    c00003e0 <debug_puts+0x20>
c00003d3:	90                   	nop
c00003d4:	90                   	nop
c00003d5:	90                   	nop
c00003d6:	90                   	nop
c00003d7:	90                   	nop
c00003d8:	90                   	nop
c00003d9:	90                   	nop
c00003da:	90                   	nop
c00003db:	90                   	nop
c00003dc:	90                   	nop
c00003dd:	90                   	nop
c00003de:	90                   	nop
c00003df:	90                   	nop
c00003e0:	0f b6 04 1e          	movzbl (%esi,%ebx,1),%eax
c00003e4:	83 ec 0c             	sub    $0xc,%esp
c00003e7:	83 c3 01             	add    $0x1,%ebx
c00003ea:	50                   	push   %eax
c00003eb:	e8 90 fd ff ff       	call   c0000180 <debug_putc>
c00003f0:	83 c4 10             	add    $0x10,%esp
c00003f3:	83 ec 0c             	sub    $0xc,%esp
c00003f6:	56                   	push   %esi
c00003f7:	e8 a4 02 00 00       	call   c00006a0 <strlen>
c00003fc:	83 c4 10             	add    $0x10,%esp
c00003ff:	39 c3                	cmp    %eax,%ebx
c0000401:	72 dd                	jb     c00003e0 <debug_puts+0x20>
c0000403:	83 c4 04             	add    $0x4,%esp
c0000406:	5b                   	pop    %ebx
c0000407:	5e                   	pop    %esi
c0000408:	c3                   	ret    
c0000409:	8d b4 26 00 00 00 00 	lea    0x0(%esi,%eiz,1),%esi

c0000410 <debug_printf>:
c0000410:	55                   	push   %ebp
c0000411:	57                   	push   %edi
c0000412:	56                   	push   %esi
c0000413:	53                   	push   %ebx
c0000414:	83 ec 5c             	sub    $0x5c,%esp
c0000417:	8b 5c 24 70          	mov    0x70(%esp),%ebx
c000041b:	85 db                	test   %ebx,%ebx
c000041d:	0f 84 6d 01 00 00    	je     c0000590 <debug_printf+0x180>
c0000423:	8d 7c 24 74          	lea    0x74(%esp),%edi
c0000427:	83 ec 0c             	sub    $0xc,%esp
c000042a:	31 ed                	xor    %ebp,%ebp
c000042c:	53                   	push   %ebx
c000042d:	e8 6e 02 00 00       	call   c00006a0 <strlen>
c0000432:	83 c4 10             	add    $0x10,%esp
c0000435:	39 c5                	cmp    %eax,%ebp
c0000437:	0f 83 7e 00 00 00    	jae    c00004bb <debug_printf+0xab>
c000043d:	8d 76 00             	lea    0x0(%esi),%esi
c0000440:	0f b6 04 2b          	movzbl (%ebx,%ebp,1),%eax
c0000444:	3c 25                	cmp    $0x25,%al
c0000446:	0f 85 24 01 00 00    	jne    c0000570 <debug_printf+0x160>
c000044c:	0f b6 44 2b 01       	movzbl 0x1(%ebx,%ebp,1),%eax
c0000451:	8d 75 01             	lea    0x1(%ebp),%esi
c0000454:	83 e8 58             	sub    $0x58,%eax
c0000457:	3c 20                	cmp    $0x20,%al
c0000459:	77 60                	ja     c00004bb <debug_printf+0xab>
c000045b:	0f b6 c0             	movzbl %al,%eax
c000045e:	ff 24 85 00 40 00 c0 	jmp    *-0x3fffc000(,%eax,4)
c0000465:	8d 74 26 00          	lea    0x0(%esi,%eiz,1),%esi
c0000469:	8d bc 27 00 00 00 00 	lea    0x0(%edi,%eiz,1),%edi
c0000470:	8b 17                	mov    (%edi),%edx
c0000472:	8d 47 04             	lea    0x4(%edi),%eax
c0000475:	8d 7c 24 10          	lea    0x10(%esp),%edi
c0000479:	b9 10 00 00 00       	mov    $0x10,%ecx
c000047e:	83 ec 08             	sub    $0x8,%esp
c0000481:	89 f5                	mov    %esi,%ebp
c0000483:	89 44 24 14          	mov    %eax,0x14(%esp)
c0000487:	31 c0                	xor    %eax,%eax
c0000489:	f3 ab                	rep stos %eax,%es:(%edi)
c000048b:	52                   	push   %edx
c000048c:	8d 4c 24 1c          	lea    0x1c(%esp),%ecx
c0000490:	51                   	push   %ecx
c0000491:	e8 ca 01 00 00       	call   c0000660 <strcpy>
c0000496:	58                   	pop    %eax
c0000497:	8d 4c 24 1c          	lea    0x1c(%esp),%ecx
c000049b:	51                   	push   %ecx
c000049c:	e8 1f ff ff ff       	call   c00003c0 <debug_puts>
c00004a1:	83 c4 10             	add    $0x10,%esp
c00004a4:	8b 7c 24 0c          	mov    0xc(%esp),%edi
c00004a8:	83 ec 0c             	sub    $0xc,%esp
c00004ab:	83 c5 01             	add    $0x1,%ebp
c00004ae:	53                   	push   %ebx
c00004af:	e8 ec 01 00 00       	call   c00006a0 <strlen>
c00004b4:	83 c4 10             	add    $0x10,%esp
c00004b7:	39 c5                	cmp    %eax,%ebp
c00004b9:	72 85                	jb     c0000440 <debug_printf+0x30>
c00004bb:	83 c4 5c             	add    $0x5c,%esp
c00004be:	b8 01 00 00 00       	mov    $0x1,%eax
c00004c3:	5b                   	pop    %ebx
c00004c4:	5e                   	pop    %esi
c00004c5:	5f                   	pop    %edi
c00004c6:	5d                   	pop    %ebp
c00004c7:	c3                   	ret    
c00004c8:	90                   	nop
c00004c9:	8d b4 26 00 00 00 00 	lea    0x0(%esi,%eiz,1),%esi
c00004d0:	8d 47 04             	lea    0x4(%edi),%eax
c00004d3:	31 d2                	xor    %edx,%edx
c00004d5:	89 44 24 0c          	mov    %eax,0xc(%esp)
c00004d9:	8b 07                	mov    (%edi),%eax
c00004db:	c7 44 14 10 00 00 00 	movl   $0x0,0x10(%esp,%edx,1)
c00004e2:	00 
c00004e3:	83 c2 04             	add    $0x4,%edx
c00004e6:	83 fa 20             	cmp    $0x20,%edx
c00004e9:	72 f0                	jb     c00004db <debug_printf+0xcb>
c00004eb:	8d 4c 24 10          	lea    0x10(%esp),%ecx
c00004ef:	ba 0a 00 00 00       	mov    $0xa,%edx
c00004f4:	eb 4e                	jmp    c0000544 <debug_printf+0x134>
c00004f6:	8d 76 00             	lea    0x0(%esi),%esi
c00004f9:	8d bc 27 00 00 00 00 	lea    0x0(%edi,%eiz,1),%edi
c0000500:	8d 47 04             	lea    0x4(%edi),%eax
c0000503:	83 ec 0c             	sub    $0xc,%esp
c0000506:	89 f5                	mov    %esi,%ebp
c0000508:	89 44 24 18          	mov    %eax,0x18(%esp)
c000050c:	0f b6 07             	movzbl (%edi),%eax
c000050f:	50                   	push   %eax
c0000510:	e8 6b fc ff ff       	call   c0000180 <debug_putc>
c0000515:	83 c4 10             	add    $0x10,%esp
c0000518:	8b 7c 24 0c          	mov    0xc(%esp),%edi
c000051c:	eb 8a                	jmp    c00004a8 <debug_printf+0x98>
c000051e:	66 90                	xchg   %ax,%ax
c0000520:	8d 47 04             	lea    0x4(%edi),%eax
c0000523:	31 d2                	xor    %edx,%edx
c0000525:	89 44 24 0c          	mov    %eax,0xc(%esp)
c0000529:	8b 07                	mov    (%edi),%eax
c000052b:	c7 44 14 10 00 00 00 	movl   $0x0,0x10(%esp,%edx,1)
c0000532:	00 
c0000533:	83 c2 04             	add    $0x4,%edx
c0000536:	83 fa 20             	cmp    $0x20,%edx
c0000539:	72 f0                	jb     c000052b <debug_printf+0x11b>
c000053b:	8d 4c 24 10          	lea    0x10(%esp),%ecx
c000053f:	ba 10 00 00 00       	mov    $0x10,%edx
c0000544:	e8 77 fb ff ff       	call   c00000c0 <itoa_s.part.2>
c0000549:	83 ec 0c             	sub    $0xc,%esp
c000054c:	89 f5                	mov    %esi,%ebp
c000054e:	8d 44 24 1c          	lea    0x1c(%esp),%eax
c0000552:	50                   	push   %eax
c0000553:	e8 68 fe ff ff       	call   c00003c0 <debug_puts>
c0000558:	83 c4 10             	add    $0x10,%esp
c000055b:	8b 7c 24 0c          	mov    0xc(%esp),%edi
c000055f:	e9 44 ff ff ff       	jmp    c00004a8 <debug_printf+0x98>
c0000564:	8d b6 00 00 00 00    	lea    0x0(%esi),%esi
c000056a:	8d bf 00 00 00 00    	lea    0x0(%edi),%edi
c0000570:	83 ec 0c             	sub    $0xc,%esp
c0000573:	50                   	push   %eax
c0000574:	e8 07 fc ff ff       	call   c0000180 <debug_putc>
c0000579:	83 c4 10             	add    $0x10,%esp
c000057c:	e9 27 ff ff ff       	jmp    c00004a8 <debug_printf+0x98>
c0000581:	eb 0d                	jmp    c0000590 <debug_printf+0x180>
c0000583:	90                   	nop
c0000584:	90                   	nop
c0000585:	90                   	nop
c0000586:	90                   	nop
c0000587:	90                   	nop
c0000588:	90                   	nop
c0000589:	90                   	nop
c000058a:	90                   	nop
c000058b:	90                   	nop
c000058c:	90                   	nop
c000058d:	90                   	nop
c000058e:	90                   	nop
c000058f:	90                   	nop
c0000590:	83 c4 5c             	add    $0x5c,%esp
c0000593:	31 c0                	xor    %eax,%eax
c0000595:	5b                   	pop    %ebx
c0000596:	5e                   	pop    %esi
c0000597:	5f                   	pop    %edi
c0000598:	5d                   	pop    %ebp
c0000599:	c3                   	ret    
c000059a:	8d b6 00 00 00 00    	lea    0x0(%esi),%esi

c00005a0 <debug_get_xy>:
c00005a0:	8b 44 24 04          	mov    0x4(%esp),%eax
c00005a4:	8b 54 24 08          	mov    0x8(%esp),%edx
c00005a8:	85 c0                	test   %eax,%eax
c00005aa:	74 16                	je     c00005c2 <debug_get_xy+0x22>
c00005ac:	85 d2                	test   %edx,%edx
c00005ae:	74 12                	je     c00005c2 <debug_get_xy+0x22>
c00005b0:	0f b6 0d 23 80 00 c0 	movzbl 0xc0008023,%ecx
c00005b7:	89 08                	mov    %ecx,(%eax)
c00005b9:	0f b6 05 22 80 00 c0 	movzbl 0xc0008022,%eax
c00005c0:	89 02                	mov    %eax,(%edx)
c00005c2:	f3 c3                	repz ret 
c00005c4:	8d b6 00 00 00 00    	lea    0x0(%esi),%esi
c00005ca:	8d bf 00 00 00 00    	lea    0x0(%edi),%edi

c00005d0 <debug_get_horz>:
c00005d0:	b8 50 00 00 00       	mov    $0x50,%eax
c00005d5:	c3                   	ret    
c00005d6:	8d 76 00             	lea    0x0(%esi),%esi
c00005d9:	8d bc 27 00 00 00 00 	lea    0x0(%edi,%eiz,1),%edi

c00005e0 <debug_get_vert>:
c00005e0:	b8 18 00 00 00       	mov    $0x18,%eax
c00005e5:	c3                   	ret    
c00005e6:	66 90                	xchg   %ax,%ax
c00005e8:	66 90                	xchg   %ax,%ax
c00005ea:	66 90                	xchg   %ax,%ax
c00005ec:	66 90                	xchg   %ax,%ax
c00005ee:	66 90                	xchg   %ax,%ax

c00005f0 <kernel_entry>:
c00005f0:	83 ec 18             	sub    $0x18,%esp
c00005f3:	ff 74 24 1c          	pushl  0x1c(%esp)
c00005f7:	e8 94 31 00 00       	call   c0003790 <main>
c00005fc:	e8 d8 07 00 00       	call   c0000dd9 <clear>
c0000601:	83 c4 10             	add    $0x10,%esp
c0000604:	eb fe                	jmp    c0000604 <kernel_entry+0x14>
c0000606:	66 90                	xchg   %ax,%ax
c0000608:	66 90                	xchg   %ax,%ax
c000060a:	66 90                	xchg   %ax,%ax
c000060c:	66 90                	xchg   %ax,%ax
c000060e:	66 90                	xchg   %ax,%ax

c0000610 <strcmp>:
c0000610:	56                   	push   %esi
c0000611:	53                   	push   %ebx
c0000612:	8b 54 24 0c          	mov    0xc(%esp),%edx
c0000616:	8b 4c 24 10          	mov    0x10(%esp),%ecx
c000061a:	eb 10                	jmp    c000062c <strcmp+0x1c>
c000061c:	8d 74 26 00          	lea    0x0(%esi,%eiz,1),%esi
c0000620:	89 f3                	mov    %esi,%ebx
c0000622:	84 db                	test   %bl,%bl
c0000624:	74 2a                	je     c0000650 <strcmp+0x40>
c0000626:	83 c2 01             	add    $0x1,%edx
c0000629:	83 c1 01             	add    $0x1,%ecx
c000062c:	0f b6 31             	movzbl (%ecx),%esi
c000062f:	0f b6 02             	movzbl (%edx),%eax
c0000632:	89 f3                	mov    %esi,%ebx
c0000634:	0f b6 db             	movzbl %bl,%ebx
c0000637:	29 d8                	sub    %ebx,%eax
c0000639:	74 e5                	je     c0000620 <strcmp+0x10>
c000063b:	83 f8 00             	cmp    $0x0,%eax
c000063e:	ba 01 00 00 00       	mov    $0x1,%edx
c0000643:	0f 4e d0             	cmovle %eax,%edx
c0000646:	85 c0                	test   %eax,%eax
c0000648:	b8 ff ff ff ff       	mov    $0xffffffff,%eax
c000064d:	0f 49 c2             	cmovns %edx,%eax
c0000650:	5b                   	pop    %ebx
c0000651:	5e                   	pop    %esi
c0000652:	c3                   	ret    
c0000653:	8d b6 00 00 00 00    	lea    0x0(%esi),%esi
c0000659:	8d bc 27 00 00 00 00 	lea    0x0(%edi,%eiz,1),%edi

c0000660 <strcpy>:
c0000660:	53                   	push   %ebx
c0000661:	8b 4c 24 0c          	mov    0xc(%esp),%ecx
c0000665:	8b 44 24 08          	mov    0x8(%esp),%eax
c0000669:	0f b6 11             	movzbl (%ecx),%edx
c000066c:	84 d2                	test   %dl,%dl
c000066e:	74 1f                	je     c000068f <strcpy+0x2f>
c0000670:	89 c3                	mov    %eax,%ebx
c0000672:	8d b4 26 00 00 00 00 	lea    0x0(%esi,%eiz,1),%esi
c0000679:	8d bc 27 00 00 00 00 	lea    0x0(%edi,%eiz,1),%edi
c0000680:	83 c1 01             	add    $0x1,%ecx
c0000683:	88 13                	mov    %dl,(%ebx)
c0000685:	83 c3 01             	add    $0x1,%ebx
c0000688:	0f b6 11             	movzbl (%ecx),%edx
c000068b:	84 d2                	test   %dl,%dl
c000068d:	75 f1                	jne    c0000680 <strcpy+0x20>
c000068f:	5b                   	pop    %ebx
c0000690:	c3                   	ret    
c0000691:	eb 0d                	jmp    c00006a0 <strlen>
c0000693:	90                   	nop
c0000694:	90                   	nop
c0000695:	90                   	nop
c0000696:	90                   	nop
c0000697:	90                   	nop
c0000698:	90                   	nop
c0000699:	90                   	nop
c000069a:	90                   	nop
c000069b:	90                   	nop
c000069c:	90                   	nop
c000069d:	90                   	nop
c000069e:	90                   	nop
c000069f:	90                   	nop

c00006a0 <strlen>:
c00006a0:	8b 54 24 04          	mov    0x4(%esp),%edx
c00006a4:	31 c0                	xor    %eax,%eax
c00006a6:	8d 76 00             	lea    0x0(%esi),%esi
c00006a9:	8d bc 27 00 00 00 00 	lea    0x0(%edi,%eiz,1),%edi
c00006b0:	83 c0 01             	add    $0x1,%eax
c00006b3:	80 7c 02 ff 00       	cmpb   $0x0,-0x1(%edx,%eax,1)
c00006b8:	75 f6                	jne    c00006b0 <strlen+0x10>
c00006ba:	f3 c3                	repz ret 
c00006bc:	8d 74 26 00          	lea    0x0(%esi,%eiz,1),%esi

c00006c0 <memcpy>:
c00006c0:	57                   	push   %edi
c00006c1:	56                   	push   %esi
c00006c2:	53                   	push   %ebx
c00006c3:	8b 74 24 18          	mov    0x18(%esp),%esi
c00006c7:	8b 54 24 14          	mov    0x14(%esp),%edx
c00006cb:	8b 7c 24 10          	mov    0x10(%esp),%edi
c00006cf:	85 f6                	test   %esi,%esi
c00006d1:	8d 1c 32             	lea    (%edx,%esi,1),%ebx
c00006d4:	74 1b                	je     c00006f1 <memcpy+0x31>
c00006d6:	89 f9                	mov    %edi,%ecx
c00006d8:	90                   	nop
c00006d9:	8d b4 26 00 00 00 00 	lea    0x0(%esi,%eiz,1),%esi
c00006e0:	83 c2 01             	add    $0x1,%edx
c00006e3:	0f b6 42 ff          	movzbl -0x1(%edx),%eax
c00006e7:	83 c1 01             	add    $0x1,%ecx
c00006ea:	39 d3                	cmp    %edx,%ebx
c00006ec:	88 41 ff             	mov    %al,-0x1(%ecx)
c00006ef:	75 ef                	jne    c00006e0 <memcpy+0x20>
c00006f1:	89 f8                	mov    %edi,%eax
c00006f3:	5b                   	pop    %ebx
c00006f4:	5e                   	pop    %esi
c00006f5:	5f                   	pop    %edi
c00006f6:	c3                   	ret    
c00006f7:	89 f6                	mov    %esi,%esi
c00006f9:	8d bc 27 00 00 00 00 	lea    0x0(%edi,%eiz,1),%edi

c0000700 <memset>:
c0000700:	8b 54 24 0c          	mov    0xc(%esp),%edx
c0000704:	8b 44 24 04          	mov    0x4(%esp),%eax
c0000708:	0f b6 4c 24 08       	movzbl 0x8(%esp),%ecx
c000070d:	85 d2                	test   %edx,%edx
c000070f:	74 19                	je     c000072a <memset+0x2a>
c0000711:	eb 0d                	jmp    c0000720 <memset+0x20>
c0000713:	90                   	nop
c0000714:	90                   	nop
c0000715:	90                   	nop
c0000716:	90                   	nop
c0000717:	90                   	nop
c0000718:	90                   	nop
c0000719:	90                   	nop
c000071a:	90                   	nop
c000071b:	90                   	nop
c000071c:	90                   	nop
c000071d:	90                   	nop
c000071e:	90                   	nop
c000071f:	90                   	nop
c0000720:	83 ea 01             	sub    $0x1,%edx
c0000723:	85 d2                	test   %edx,%edx
c0000725:	88 0c 10             	mov    %cl,(%eax,%edx,1)
c0000728:	75 f6                	jne    c0000720 <memset+0x20>
c000072a:	f3 c3                	repz ret 
c000072c:	8d 74 26 00          	lea    0x0(%esi,%eiz,1),%esi

c0000730 <memsetw>:
c0000730:	53                   	push   %ebx
c0000731:	8b 54 24 10          	mov    0x10(%esp),%edx
c0000735:	8b 44 24 08          	mov    0x8(%esp),%eax
c0000739:	0f b7 5c 24 0c       	movzwl 0xc(%esp),%ebx
c000073e:	85 d2                	test   %edx,%edx
c0000740:	74 1a                	je     c000075c <memsetw+0x2c>
c0000742:	89 c1                	mov    %eax,%ecx
c0000744:	8d b6 00 00 00 00    	lea    0x0(%esi),%esi
c000074a:	8d bf 00 00 00 00    	lea    0x0(%edi),%edi
c0000750:	83 c1 02             	add    $0x2,%ecx
c0000753:	83 ea 01             	sub    $0x1,%edx
c0000756:	66 89 59 fe          	mov    %bx,-0x2(%ecx)
c000075a:	75 f4                	jne    c0000750 <memsetw+0x20>
c000075c:	5b                   	pop    %ebx
c000075d:	c3                   	ret    
c000075e:	66 90                	xchg   %ax,%ax

c0000760 <init>:
c0000760:	56                   	push   %esi
c0000761:	53                   	push   %ebx
c0000762:	83 ec 20             	sub    $0x20,%esp
c0000765:	8d 44 24 18          	lea    0x18(%esp),%eax
c0000769:	c7 44 24 18 00 00 00 	movl   $0x0,0x18(%esp)
c0000770:	00 
c0000771:	50                   	push   %eax
c0000772:	e8 e2 06 00 00       	call   c0000e59 <_get_kernel_size>
c0000777:	c7 04 24 13 00 00 00 	movl   $0x13,(%esp)
c000077e:	e8 fd fb ff ff       	call   c0000380 <debug_clr_scr>
c0000783:	58                   	pop    %eax
c0000784:	5a                   	pop    %edx
c0000785:	6a 00                	push   $0x0
c0000787:	6a 00                	push   $0x0
c0000789:	e8 b2 fb ff ff       	call   c0000340 <debug_goto_xy>
c000078e:	c7 04 24 3f 00 00 00 	movl   $0x3f,(%esp)
c0000795:	e8 86 fb ff ff       	call   c0000320 <debug_set_color>
c000079a:	c7 04 24 08 62 00 c0 	movl   $0xc0006208,(%esp)
c00007a1:	e8 6a fc ff ff       	call   c0000410 <debug_printf>
c00007a6:	59                   	pop    %ecx
c00007a7:	5b                   	pop    %ebx
c00007a8:	6a 18                	push   $0x18
c00007aa:	6a 00                	push   $0x0
c00007ac:	e8 8f fb ff ff       	call   c0000340 <debug_goto_xy>
c00007b1:	c7 04 24 3f 00 00 00 	movl   $0x3f,(%esp)
c00007b8:	e8 63 fb ff ff       	call   c0000320 <debug_set_color>
c00007bd:	c7 04 24 5c 62 00 c0 	movl   $0xc000625c,(%esp)
c00007c4:	e8 47 fc ff ff       	call   c0000410 <debug_printf>
c00007c9:	5e                   	pop    %esi
c00007ca:	58                   	pop    %eax
c00007cb:	6a 02                	push   $0x2
c00007cd:	6a 00                	push   $0x0
c00007cf:	e8 6c fb ff ff       	call   c0000340 <debug_goto_xy>
c00007d4:	c7 04 24 17 00 00 00 	movl   $0x17,(%esp)
c00007db:	e8 40 fb ff ff       	call   c0000320 <debug_set_color>
c00007e0:	e8 fb 08 00 00       	call   c00010e0 <hal_initialize>
c00007e5:	58                   	pop    %eax
c00007e6:	5a                   	pop    %edx
c00007e7:	68 f0 1c 00 c0       	push   $0xc0001cf0
c00007ec:	6a 00                	push   $0x0
c00007ee:	e8 0d 0a 00 00       	call   c0001200 <setvect>
c00007f3:	59                   	pop    %ecx
c00007f4:	5b                   	pop    %ebx
c00007f5:	68 10 1d 00 c0       	push   $0xc0001d10
c00007fa:	6a 01                	push   $0x1
c00007fc:	e8 ff 09 00 00       	call   c0001200 <setvect>
c0000801:	5e                   	pop    %esi
c0000802:	58                   	pop    %eax
c0000803:	68 30 1d 00 c0       	push   $0xc0001d30
c0000808:	6a 02                	push   $0x2
c000080a:	e8 f1 09 00 00       	call   c0001200 <setvect>
c000080f:	58                   	pop    %eax
c0000810:	5a                   	pop    %edx
c0000811:	68 50 1d 00 c0       	push   $0xc0001d50
c0000816:	6a 03                	push   $0x3
c0000818:	e8 e3 09 00 00       	call   c0001200 <setvect>
c000081d:	59                   	pop    %ecx
c000081e:	5b                   	pop    %ebx
c000081f:	68 70 1d 00 c0       	push   $0xc0001d70
c0000824:	6a 04                	push   $0x4
c0000826:	e8 d5 09 00 00       	call   c0001200 <setvect>
c000082b:	5e                   	pop    %esi
c000082c:	58                   	pop    %eax
c000082d:	68 90 1d 00 c0       	push   $0xc0001d90
c0000832:	6a 05                	push   $0x5
c0000834:	e8 c7 09 00 00       	call   c0001200 <setvect>
c0000839:	58                   	pop    %eax
c000083a:	5a                   	pop    %edx
c000083b:	68 b0 1d 00 c0       	push   $0xc0001db0
c0000840:	6a 06                	push   $0x6
c0000842:	e8 b9 09 00 00       	call   c0001200 <setvect>
c0000847:	59                   	pop    %ecx
c0000848:	5b                   	pop    %ebx
c0000849:	68 d0 1d 00 c0       	push   $0xc0001dd0
c000084e:	6a 07                	push   $0x7
c0000850:	e8 ab 09 00 00       	call   c0001200 <setvect>
c0000855:	5e                   	pop    %esi
c0000856:	58                   	pop    %eax
c0000857:	68 f0 1d 00 c0       	push   $0xc0001df0
c000085c:	6a 08                	push   $0x8
c000085e:	e8 9d 09 00 00       	call   c0001200 <setvect>
c0000863:	58                   	pop    %eax
c0000864:	5a                   	pop    %edx
c0000865:	68 10 1e 00 c0       	push   $0xc0001e10
c000086a:	6a 0a                	push   $0xa
c000086c:	e8 8f 09 00 00       	call   c0001200 <setvect>
c0000871:	59                   	pop    %ecx
c0000872:	5b                   	pop    %ebx
c0000873:	68 30 1e 00 c0       	push   $0xc0001e30
c0000878:	6a 0b                	push   $0xb
c000087a:	e8 81 09 00 00       	call   c0001200 <setvect>
c000087f:	5e                   	pop    %esi
c0000880:	58                   	pop    %eax
c0000881:	68 50 1e 00 c0       	push   $0xc0001e50
c0000886:	6a 0c                	push   $0xc
c0000888:	e8 73 09 00 00       	call   c0001200 <setvect>
c000088d:	58                   	pop    %eax
c000088e:	5a                   	pop    %edx
c000088f:	68 70 1e 00 c0       	push   $0xc0001e70
c0000894:	6a 0d                	push   $0xd
c0000896:	e8 65 09 00 00       	call   c0001200 <setvect>
c000089b:	59                   	pop    %ecx
c000089c:	5b                   	pop    %ebx
c000089d:	68 90 1e 00 c0       	push   $0xc0001e90
c00008a2:	6a 0e                	push   $0xe
c00008a4:	e8 57 09 00 00       	call   c0001200 <setvect>
c00008a9:	5e                   	pop    %esi
c00008aa:	58                   	pop    %eax
c00008ab:	68 b0 1e 00 c0       	push   $0xc0001eb0
c00008b0:	6a 10                	push   $0x10
c00008b2:	e8 49 09 00 00       	call   c0001200 <setvect>
c00008b7:	58                   	pop    %eax
c00008b8:	5a                   	pop    %edx
c00008b9:	68 d0 1e 00 c0       	push   $0xc0001ed0
c00008be:	6a 11                	push   $0x11
c00008c0:	e8 3b 09 00 00       	call   c0001200 <setvect>
c00008c5:	59                   	pop    %ecx
c00008c6:	5b                   	pop    %ebx
c00008c7:	68 f0 1e 00 c0       	push   $0xc0001ef0
c00008cc:	6a 12                	push   $0x12
c00008ce:	bb 08 10 00 00       	mov    $0x1008,%ebx
c00008d3:	e8 28 09 00 00       	call   c0001200 <setvect>
c00008d8:	5e                   	pop    %esi
c00008d9:	58                   	pop    %eax
c00008da:	68 10 1f 00 c0       	push   $0xc0001f10
c00008df:	6a 13                	push   $0x13
c00008e1:	be 01 00 00 00       	mov    $0x1,%esi
c00008e6:	e8 15 09 00 00       	call   c0001200 <setvect>
c00008eb:	e8 f0 08 00 00       	call   c00011e0 <enable>
c00008f0:	58                   	pop    %eax
c00008f1:	5a                   	pop    %edx
c00008f2:	8b 44 24 14          	mov    0x14(%esp),%eax
c00008f6:	05 00 00 60 00       	add    $0x600000,%eax
c00008fb:	c1 e0 09             	shl    $0x9,%eax
c00008fe:	50                   	push   %eax
c00008ff:	8b 44 24 2c          	mov    0x2c(%esp),%eax
c0000903:	ff 70 04             	pushl  0x4(%eax)
c0000906:	e8 f5 17 00 00       	call   c0002100 <pmmngr_init>
c000090b:	83 c4 10             	add    $0x10,%esp
c000090e:	eb 06                	jmp    c0000916 <init+0x1b6>
c0000910:	83 c6 01             	add    $0x1,%esi
c0000913:	83 c3 18             	add    $0x18,%ebx
c0000916:	83 7b 08 04          	cmpl   $0x4,0x8(%ebx)
c000091a:	77 1f                	ja     c000093b <init+0x1db>
c000091c:	83 fe 01             	cmp    $0x1,%esi
c000091f:	74 6f                	je     c0000990 <init+0x230>
c0000921:	8b 43 f8             	mov    -0x8(%ebx),%eax
c0000924:	85 c0                	test   %eax,%eax
c0000926:	74 13                	je     c000093b <init+0x1db>
c0000928:	83 ec 08             	sub    $0x8,%esp
c000092b:	ff 33                	pushl  (%ebx)
c000092d:	50                   	push   %eax
c000092e:	e8 0d 18 00 00       	call   c0002140 <pmmngr_init_region>
c0000933:	83 c4 10             	add    $0x10,%esp
c0000936:	83 fe 0a             	cmp    $0xa,%esi
c0000939:	75 d5                	jne    c0000910 <init+0x1b0>
c000093b:	83 ec 08             	sub    $0x8,%esp
c000093e:	8b 44 24 14          	mov    0x14(%esp),%eax
c0000942:	c1 e0 09             	shl    $0x9,%eax
c0000945:	50                   	push   %eax
c0000946:	68 00 00 10 00       	push   $0x100000
c000094b:	e8 50 18 00 00       	call   c00021a0 <pmmngr_deinit_region>
c0000950:	e8 fb 1c 00 00       	call   c0002650 <vmmngr_initialize>
c0000955:	c7 04 24 21 00 00 00 	movl   $0x21,(%esp)
c000095c:	e8 8f 25 00 00       	call   c0002ef0 <kkybrd_install>
c0000961:	c7 04 24 00 00 00 00 	movl   $0x0,(%esp)
c0000968:	e8 33 2d 00 00       	call   c00036a0 <flpydsk_set_working_drive>
c000096d:	c7 04 24 26 00 00 00 	movl   $0x26,(%esp)
c0000974:	e8 d7 2c 00 00       	call   c0003650 <flpydsk_install>
c0000979:	83 c4 10             	add    $0x10,%esp
c000097c:	83 c4 14             	add    $0x14,%esp
c000097f:	5b                   	pop    %ebx
c0000980:	5e                   	pop    %esi
c0000981:	c3                   	ret    
c0000982:	8d b4 26 00 00 00 00 	lea    0x0(%esi,%eiz,1),%esi
c0000989:	8d bc 27 00 00 00 00 	lea    0x0(%edi,%eiz,1),%edi
c0000990:	83 ec 08             	sub    $0x8,%esp
c0000993:	ff 33                	pushl  (%ebx)
c0000995:	ff 73 f8             	pushl  -0x8(%ebx)
c0000998:	e8 a3 17 00 00       	call   c0002140 <pmmngr_init_region>
c000099d:	83 c4 10             	add    $0x10,%esp
c00009a0:	e9 6b ff ff ff       	jmp    c0000910 <init+0x1b0>
c00009a5:	8d 74 26 00          	lea    0x0(%esi,%eiz,1),%esi
c00009a9:	8d bc 27 00 00 00 00 	lea    0x0(%edi,%eiz,1),%edi

c00009b0 <sleep>:
c00009b0:	83 ec 0c             	sub    $0xc,%esp
c00009b3:	e8 b8 08 00 00       	call   c0001270 <get_tick_count>
c00009b8:	03 44 24 10          	add    0x10(%esp),%eax
c00009bc:	a3 24 80 00 c0       	mov    %eax,0xc0008024
c00009c1:	eb 0d                	jmp    c00009d0 <sleep+0x20>
c00009c3:	90                   	nop
c00009c4:	90                   	nop
c00009c5:	90                   	nop
c00009c6:	90                   	nop
c00009c7:	90                   	nop
c00009c8:	90                   	nop
c00009c9:	90                   	nop
c00009ca:	90                   	nop
c00009cb:	90                   	nop
c00009cc:	90                   	nop
c00009cd:	90                   	nop
c00009ce:	90                   	nop
c00009cf:	90                   	nop
c00009d0:	e8 9b 08 00 00       	call   c0001270 <get_tick_count>
c00009d5:	3b 05 24 80 00 c0    	cmp    0xc0008024,%eax
c00009db:	7c f3                	jl     c00009d0 <sleep+0x20>
c00009dd:	83 c4 0c             	add    $0xc,%esp
c00009e0:	c3                   	ret    
c00009e1:	eb 0d                	jmp    c00009f0 <getch>
c00009e3:	90                   	nop
c00009e4:	90                   	nop
c00009e5:	90                   	nop
c00009e6:	90                   	nop
c00009e7:	90                   	nop
c00009e8:	90                   	nop
c00009e9:	90                   	nop
c00009ea:	90                   	nop
c00009eb:	90                   	nop
c00009ec:	90                   	nop
c00009ed:	90                   	nop
c00009ee:	90                   	nop
c00009ef:	90                   	nop

c00009f0 <getch>:
c00009f0:	83 ec 1c             	sub    $0x1c,%esp
c00009f3:	8d b6 00 00 00 00    	lea    0x0(%esi),%esi
c00009f9:	8d bc 27 00 00 00 00 	lea    0x0(%edi,%eiz,1),%edi
c0000a00:	e8 6b 22 00 00       	call   c0002c70 <kkybrd_get_last_key>
c0000a05:	3d 12 40 00 00       	cmp    $0x4012,%eax
c0000a0a:	74 f4                	je     c0000a00 <getch+0x10>
c0000a0c:	89 44 24 0c          	mov    %eax,0xc(%esp)
c0000a10:	e8 8b 22 00 00       	call   c0002ca0 <kkybrd_discard_last_key>
c0000a15:	8b 44 24 0c          	mov    0xc(%esp),%eax
c0000a19:	83 c4 1c             	add    $0x1c,%esp
c0000a1c:	c3                   	ret    
c0000a1d:	8d 76 00             	lea    0x0(%esi),%esi

c0000a20 <cmd>:
c0000a20:	83 ec 18             	sub    $0x18,%esp
c0000a23:	68 9c 66 00 c0       	push   $0xc000669c
c0000a28:	e8 e3 f9 ff ff       	call   c0000410 <debug_printf>
c0000a2d:	83 c4 1c             	add    $0x1c,%esp
c0000a30:	c3                   	ret    
c0000a31:	eb 0d                	jmp    c0000a40 <get_cmd>
c0000a33:	90                   	nop
c0000a34:	90                   	nop
c0000a35:	90                   	nop
c0000a36:	90                   	nop
c0000a37:	90                   	nop
c0000a38:	90                   	nop
c0000a39:	90                   	nop
c0000a3a:	90                   	nop
c0000a3b:	90                   	nop
c0000a3c:	90                   	nop
c0000a3d:	90                   	nop
c0000a3e:	90                   	nop
c0000a3f:	90                   	nop

c0000a40 <get_cmd>:
c0000a40:	55                   	push   %ebp
c0000a41:	57                   	push   %edi
c0000a42:	56                   	push   %esi
c0000a43:	53                   	push   %ebx
c0000a44:	31 db                	xor    %ebx,%ebx
c0000a46:	83 ec 38             	sub    $0x38,%esp
c0000a49:	8b 74 24 50          	mov    0x50(%esp),%esi
c0000a4d:	68 9c 66 00 c0       	push   $0xc000669c
c0000a52:	e8 b9 f9 ff ff       	call   c0000410 <debug_printf>
c0000a57:	83 c4 10             	add    $0x10,%esp
c0000a5a:	85 f6                	test   %esi,%esi
c0000a5c:	7e 5a                	jle    c0000ab8 <get_cmd+0x78>
c0000a5e:	8d 6c 24 18          	lea    0x18(%esp),%ebp
c0000a62:	8d 7c 24 1c          	lea    0x1c(%esp),%edi
c0000a66:	8d 76 00             	lea    0x0(%esi),%esi
c0000a69:	8d bc 27 00 00 00 00 	lea    0x0(%edi,%eiz,1),%edi
c0000a70:	e8 fb 21 00 00       	call   c0002c70 <kkybrd_get_last_key>
c0000a75:	3d 12 40 00 00       	cmp    $0x4012,%eax
c0000a7a:	74 f4                	je     c0000a70 <get_cmd+0x30>
c0000a7c:	89 44 24 0c          	mov    %eax,0xc(%esp)
c0000a80:	e8 1b 22 00 00       	call   c0002ca0 <kkybrd_discard_last_key>
c0000a85:	8b 44 24 0c          	mov    0xc(%esp),%eax
c0000a89:	83 f8 0d             	cmp    $0xd,%eax
c0000a8c:	74 2a                	je     c0000ab8 <get_cmd+0x78>
c0000a8e:	83 f8 08             	cmp    $0x8,%eax
c0000a91:	74 3d                	je     c0000ad0 <get_cmd+0x90>
c0000a93:	83 ec 0c             	sub    $0xc,%esp
c0000a96:	50                   	push   %eax
c0000a97:	e8 14 22 00 00       	call   c0002cb0 <kkybrd_key_to_ascii>
c0000a9c:	83 c4 10             	add    $0x10,%esp
c0000a9f:	84 c0                	test   %al,%al
c0000aa1:	0f 85 a9 00 00 00    	jne    c0000b50 <get_cmd+0x110>
c0000aa7:	83 ec 0c             	sub    $0xc,%esp
c0000aaa:	6a 0a                	push   $0xa
c0000aac:	e8 ff fe ff ff       	call   c00009b0 <sleep>
c0000ab1:	83 c4 10             	add    $0x10,%esp
c0000ab4:	39 f3                	cmp    %esi,%ebx
c0000ab6:	7c b8                	jl     c0000a70 <get_cmd+0x30>
c0000ab8:	8b 44 24 40          	mov    0x40(%esp),%eax
c0000abc:	c6 04 18 00          	movb   $0x0,(%eax,%ebx,1)
c0000ac0:	83 c4 2c             	add    $0x2c,%esp
c0000ac3:	5b                   	pop    %ebx
c0000ac4:	5e                   	pop    %esi
c0000ac5:	5f                   	pop    %edi
c0000ac6:	5d                   	pop    %ebp
c0000ac7:	c3                   	ret    
c0000ac8:	90                   	nop
c0000ac9:	8d b4 26 00 00 00 00 	lea    0x0(%esi,%eiz,1),%esi
c0000ad0:	85 db                	test   %ebx,%ebx
c0000ad2:	74 5c                	je     c0000b30 <get_cmd+0xf0>
c0000ad4:	83 ec 08             	sub    $0x8,%esp
c0000ad7:	55                   	push   %ebp
c0000ad8:	57                   	push   %edi
c0000ad9:	e8 c2 fa ff ff       	call   c00005a0 <debug_get_xy>
c0000ade:	8b 44 24 2c          	mov    0x2c(%esp),%eax
c0000ae2:	83 c4 10             	add    $0x10,%esp
c0000ae5:	85 c0                	test   %eax,%eax
c0000ae7:	0f 84 8a 00 00 00    	je     c0000b77 <get_cmd+0x137>
c0000aed:	83 e8 01             	sub    $0x1,%eax
c0000af0:	83 ec 08             	sub    $0x8,%esp
c0000af3:	89 44 24 24          	mov    %eax,0x24(%esp)
c0000af7:	ff 74 24 20          	pushl  0x20(%esp)
c0000afb:	50                   	push   %eax
c0000afc:	e8 3f f8 ff ff       	call   c0000340 <debug_goto_xy>
c0000b01:	83 c4 10             	add    $0x10,%esp
c0000b04:	83 ec 0c             	sub    $0xc,%esp
c0000b07:	83 eb 01             	sub    $0x1,%ebx
c0000b0a:	6a 20                	push   $0x20
c0000b0c:	e8 6f f6 ff ff       	call   c0000180 <debug_putc>
c0000b11:	58                   	pop    %eax
c0000b12:	5a                   	pop    %edx
c0000b13:	ff 74 24 20          	pushl  0x20(%esp)
c0000b17:	ff 74 24 28          	pushl  0x28(%esp)
c0000b1b:	e8 20 f8 ff ff       	call   c0000340 <debug_goto_xy>
c0000b20:	83 c4 10             	add    $0x10,%esp
c0000b23:	eb 82                	jmp    c0000aa7 <get_cmd+0x67>
c0000b25:	8d 74 26 00          	lea    0x0(%esi,%eiz,1),%esi
c0000b29:	8d bc 27 00 00 00 00 	lea    0x0(%edi,%eiz,1),%edi
c0000b30:	83 ec 0c             	sub    $0xc,%esp
c0000b33:	6a 0a                	push   $0xa
c0000b35:	e8 76 fe ff ff       	call   c00009b0 <sleep>
c0000b3a:	83 c4 10             	add    $0x10,%esp
c0000b3d:	e9 2e ff ff ff       	jmp    c0000a70 <get_cmd+0x30>
c0000b42:	8d b4 26 00 00 00 00 	lea    0x0(%esi,%eiz,1),%esi
c0000b49:	8d bc 27 00 00 00 00 	lea    0x0(%edi,%eiz,1),%edi
c0000b50:	83 ec 0c             	sub    $0xc,%esp
c0000b53:	0f b6 d0             	movzbl %al,%edx
c0000b56:	88 44 24 18          	mov    %al,0x18(%esp)
c0000b5a:	52                   	push   %edx
c0000b5b:	e8 20 f6 ff ff       	call   c0000180 <debug_putc>
c0000b60:	0f b6 44 24 1c       	movzbl 0x1c(%esp),%eax
c0000b65:	8b 4c 24 50          	mov    0x50(%esp),%ecx
c0000b69:	83 c4 10             	add    $0x10,%esp
c0000b6c:	88 04 19             	mov    %al,(%ecx,%ebx,1)
c0000b6f:	83 c3 01             	add    $0x1,%ebx
c0000b72:	e9 30 ff ff ff       	jmp    c0000aa7 <get_cmd+0x67>
c0000b77:	83 6c 24 18 01       	subl   $0x1,0x18(%esp)
c0000b7c:	e8 4f fa ff ff       	call   c00005d0 <debug_get_horz>
c0000b81:	89 44 24 1c          	mov    %eax,0x1c(%esp)
c0000b85:	e9 7a ff ff ff       	jmp    c0000b04 <get_cmd+0xc4>
c0000b8a:	8d b6 00 00 00 00    	lea    0x0(%esi),%esi

c0000b90 <cmd_read_sect>:
c0000b90:	57                   	push   %edi
c0000b91:	56                   	push   %esi
c0000b92:	53                   	push   %ebx
c0000b93:	83 ec 1c             	sub    $0x1c,%esp
c0000b96:	68 b0 62 00 c0       	push   $0xc00062b0
c0000b9b:	e8 70 f8 ff ff       	call   c0000410 <debug_printf>
c0000ba0:	58                   	pop    %eax
c0000ba1:	5a                   	pop    %edx
c0000ba2:	6a 03                	push   $0x3
c0000ba4:	8d 5c 24 18          	lea    0x18(%esp),%ebx
c0000ba8:	53                   	push   %ebx
c0000ba9:	e8 92 fe ff ff       	call   c0000a40 <get_cmd>
c0000bae:	89 1c 24             	mov    %ebx,(%esp)
c0000bb1:	e8 9a 0e 00 00       	call   c0001a50 <atoi>
c0000bb6:	59                   	pop    %ecx
c0000bb7:	5b                   	pop    %ebx
c0000bb8:	6a 01                	push   $0x1
c0000bba:	68 a7 66 00 c0       	push   $0xc00066a7
c0000bbf:	e8 4c f8 ff ff       	call   c0000410 <debug_printf>
c0000bc4:	c7 04 24 01 00 00 00 	movl   $0x1,(%esp)
c0000bcb:	e8 f0 2a 00 00       	call   c00036c0 <flpydsk_read_sector>
c0000bd0:	83 c4 10             	add    $0x10,%esp
c0000bd3:	85 c0                	test   %eax,%eax
c0000bd5:	74 74                	je     c0000c4b <cmd_read_sect+0xbb>
c0000bd7:	8d b8 00 02 00 00    	lea    0x200(%eax),%edi
c0000bdd:	89 c3                	mov    %eax,%ebx
c0000bdf:	8d b3 80 00 00 00    	lea    0x80(%ebx),%esi
c0000be5:	8d 74 26 00          	lea    0x0(%esi,%eiz,1),%esi
c0000be9:	8d bc 27 00 00 00 00 	lea    0x0(%edi,%eiz,1),%edi
c0000bf0:	0f b6 03             	movzbl (%ebx),%eax
c0000bf3:	83 ec 08             	sub    $0x8,%esp
c0000bf6:	83 c3 01             	add    $0x1,%ebx
c0000bf9:	50                   	push   %eax
c0000bfa:	68 c0 66 00 c0       	push   $0xc00066c0
c0000bff:	e8 0c f8 ff ff       	call   c0000410 <debug_printf>
c0000c04:	83 c4 10             	add    $0x10,%esp
c0000c07:	39 de                	cmp    %ebx,%esi
c0000c09:	75 e5                	jne    c0000bf0 <cmd_read_sect+0x60>
c0000c0b:	83 ec 0c             	sub    $0xc,%esp
c0000c0e:	68 c6 66 00 c0       	push   $0xc00066c6
c0000c13:	e8 f8 f7 ff ff       	call   c0000410 <debug_printf>
c0000c18:	83 c4 10             	add    $0x10,%esp
c0000c1b:	90                   	nop
c0000c1c:	8d 74 26 00          	lea    0x0(%esi,%eiz,1),%esi
c0000c20:	e8 4b 20 00 00       	call   c0002c70 <kkybrd_get_last_key>
c0000c25:	3d 12 40 00 00       	cmp    $0x4012,%eax
c0000c2a:	74 f4                	je     c0000c20 <cmd_read_sect+0x90>
c0000c2c:	e8 6f 20 00 00       	call   c0002ca0 <kkybrd_discard_last_key>
c0000c31:	39 f7                	cmp    %esi,%edi
c0000c33:	89 f3                	mov    %esi,%ebx
c0000c35:	75 a8                	jne    c0000bdf <cmd_read_sect+0x4f>
c0000c37:	83 ec 0c             	sub    $0xc,%esp
c0000c3a:	68 e4 66 00 c0       	push   $0xc00066e4
c0000c3f:	e8 cc f7 ff ff       	call   c0000410 <debug_printf>
c0000c44:	83 c4 20             	add    $0x20,%esp
c0000c47:	5b                   	pop    %ebx
c0000c48:	5e                   	pop    %esi
c0000c49:	5f                   	pop    %edi
c0000c4a:	c3                   	ret    
c0000c4b:	83 ec 0c             	sub    $0xc,%esp
c0000c4e:	68 e4 62 00 c0       	push   $0xc00062e4
c0000c53:	e8 b8 f7 ff ff       	call   c0000410 <debug_printf>
c0000c58:	83 c4 10             	add    $0x10,%esp
c0000c5b:	eb da                	jmp    c0000c37 <cmd_read_sect+0xa7>
c0000c5d:	8d 76 00             	lea    0x0(%esi),%esi

c0000c60 <run_cmd>:
c0000c60:	53                   	push   %ebx
c0000c61:	83 ec 10             	sub    $0x10,%esp
c0000c64:	8b 5c 24 18          	mov    0x18(%esp),%ebx
c0000c68:	68 ec 66 00 c0       	push   $0xc00066ec
c0000c6d:	53                   	push   %ebx
c0000c6e:	e8 9d f9 ff ff       	call   c0000610 <strcmp>
c0000c73:	83 c4 10             	add    $0x10,%esp
c0000c76:	85 c0                	test   %eax,%eax
c0000c78:	ba 01 00 00 00       	mov    $0x1,%edx
c0000c7d:	75 11                	jne    c0000c90 <run_cmd+0x30>
c0000c7f:	83 c4 08             	add    $0x8,%esp
c0000c82:	89 d0                	mov    %edx,%eax
c0000c84:	5b                   	pop    %ebx
c0000c85:	c3                   	ret    
c0000c86:	8d 76 00             	lea    0x0(%esi),%esi
c0000c89:	8d bc 27 00 00 00 00 	lea    0x0(%edi,%eiz,1),%edi
c0000c90:	83 ec 08             	sub    $0x8,%esp
c0000c93:	68 f1 66 00 c0       	push   $0xc00066f1
c0000c98:	53                   	push   %ebx
c0000c99:	e8 72 f9 ff ff       	call   c0000610 <strcmp>
c0000c9e:	83 c4 10             	add    $0x10,%esp
c0000ca1:	85 c0                	test   %eax,%eax
c0000ca3:	0f 84 a7 00 00 00    	je     c0000d50 <run_cmd+0xf0>
c0000ca9:	83 ec 08             	sub    $0x8,%esp
c0000cac:	68 f5 66 00 c0       	push   $0xc00066f5
c0000cb1:	53                   	push   %ebx
c0000cb2:	e8 59 f9 ff ff       	call   c0000610 <strcmp>
c0000cb7:	83 c4 10             	add    $0x10,%esp
c0000cba:	85 c0                	test   %eax,%eax
c0000cbc:	74 32                	je     c0000cf0 <run_cmd+0x90>
c0000cbe:	83 ec 08             	sub    $0x8,%esp
c0000cc1:	68 2b 67 00 c0       	push   $0xc000672b
c0000cc6:	53                   	push   %ebx
c0000cc7:	e8 44 f9 ff ff       	call   c0000610 <strcmp>
c0000ccc:	83 c4 10             	add    $0x10,%esp
c0000ccf:	85 c0                	test   %eax,%eax
c0000cd1:	0f 84 99 00 00 00    	je     c0000d70 <run_cmd+0x110>
c0000cd7:	83 ec 0c             	sub    $0xc,%esp
c0000cda:	68 30 67 00 c0       	push   $0xc0006730
c0000cdf:	e8 2c f7 ff ff       	call   c0000410 <debug_printf>
c0000ce4:	83 c4 10             	add    $0x10,%esp
c0000ce7:	31 d2                	xor    %edx,%edx
c0000ce9:	eb 94                	jmp    c0000c7f <run_cmd+0x1f>
c0000ceb:	90                   	nop
c0000cec:	8d 74 26 00          	lea    0x0(%esi,%eiz,1),%esi
c0000cf0:	83 ec 0c             	sub    $0xc,%esp
c0000cf3:	68 0c 63 00 c0       	push   $0xc000630c
c0000cf8:	e8 c3 f6 ff ff       	call   c00003c0 <debug_puts>
c0000cfd:	c7 04 24 40 63 00 c0 	movl   $0xc0006340,(%esp)
c0000d04:	e8 b7 f6 ff ff       	call   c00003c0 <debug_puts>
c0000d09:	c7 04 24 fa 66 00 c0 	movl   $0xc00066fa,(%esp)
c0000d10:	e8 ab f6 ff ff       	call   c00003c0 <debug_puts>
c0000d15:	c7 04 24 70 63 00 c0 	movl   $0xc0006370,(%esp)
c0000d1c:	e8 9f f6 ff ff       	call   c00003c0 <debug_puts>
c0000d21:	c7 04 24 0f 67 00 c0 	movl   $0xc000670f,(%esp)
c0000d28:	e8 93 f6 ff ff       	call   c00003c0 <debug_puts>
c0000d2d:	c7 04 24 98 63 00 c0 	movl   $0xc0006398,(%esp)
c0000d34:	e8 87 f6 ff ff       	call   c00003c0 <debug_puts>
c0000d39:	c7 04 24 b8 63 00 c0 	movl   $0xc00063b8,(%esp)
c0000d40:	e8 7b f6 ff ff       	call   c00003c0 <debug_puts>
c0000d45:	83 c4 10             	add    $0x10,%esp
c0000d48:	31 d2                	xor    %edx,%edx
c0000d4a:	e9 30 ff ff ff       	jmp    c0000c7f <run_cmd+0x1f>
c0000d4f:	90                   	nop
c0000d50:	83 ec 0c             	sub    $0xc,%esp
c0000d53:	6a 17                	push   $0x17
c0000d55:	e8 26 f6 ff ff       	call   c0000380 <debug_clr_scr>
c0000d5a:	83 c4 10             	add    $0x10,%esp
c0000d5d:	31 d2                	xor    %edx,%edx
c0000d5f:	83 c4 08             	add    $0x8,%esp
c0000d62:	89 d0                	mov    %edx,%eax
c0000d64:	5b                   	pop    %ebx
c0000d65:	c3                   	ret    
c0000d66:	8d 76 00             	lea    0x0(%esi),%esi
c0000d69:	8d bc 27 00 00 00 00 	lea    0x0(%edi,%eiz,1),%edi
c0000d70:	e8 1b fe ff ff       	call   c0000b90 <cmd_read_sect>
c0000d75:	31 d2                	xor    %edx,%edx
c0000d77:	e9 03 ff ff ff       	jmp    c0000c7f <run_cmd+0x1f>
c0000d7c:	8d 74 26 00          	lea    0x0(%esi,%eiz,1),%esi

c0000d80 <run>:
c0000d80:	53                   	push   %ebx
c0000d81:	83 ec 78             	sub    $0x78,%esp
c0000d84:	8d 5c 24 0c          	lea    0xc(%esp),%ebx
c0000d88:	90                   	nop
c0000d89:	8d b4 26 00 00 00 00 	lea    0x0(%esi,%eiz,1),%esi
c0000d90:	83 ec 08             	sub    $0x8,%esp
c0000d93:	6a 62                	push   $0x62
c0000d95:	53                   	push   %ebx
c0000d96:	e8 a5 fc ff ff       	call   c0000a40 <get_cmd>
c0000d9b:	89 1c 24             	mov    %ebx,(%esp)
c0000d9e:	e8 bd fe ff ff       	call   c0000c60 <run_cmd>
c0000da3:	83 c4 10             	add    $0x10,%esp
c0000da6:	84 c0                	test   %al,%al
c0000da8:	74 e6                	je     c0000d90 <run+0x10>
c0000daa:	83 c4 78             	add    $0x78,%esp
c0000dad:	5b                   	pop    %ebx
c0000dae:	c3                   	ret    

c0000daf <intialize>:
c0000daf:	fa                   	cli    
c0000db0:	8b 4c 24 04          	mov    0x4(%esp),%ecx
c0000db4:	89 e3                	mov    %esp,%ebx
c0000db6:	bc 00 00 09 00       	mov    $0x90000,%esp
c0000dbb:	53                   	push   %ebx
c0000dbc:	31 db                	xor    %ebx,%ebx
c0000dbe:	66 bb 10 00          	mov    $0x10,%bx
c0000dc2:	8e db                	mov    %ebx,%ds
c0000dc4:	8e c3                	mov    %ebx,%es
c0000dc6:	8e e3                	mov    %ebx,%fs
c0000dc8:	8e eb                	mov    %ebx,%gs
c0000dca:	8e d3                	mov    %ebx,%ss
c0000dcc:	89 e5                	mov    %esp,%ebp
c0000dce:	55                   	push   %ebp
c0000dcf:	51                   	push   %ecx
c0000dd0:	e8 1b f8 ff ff       	call   c00005f0 <kernel_entry>
c0000dd5:	59                   	pop    %ecx
c0000dd6:	59                   	pop    %ecx
c0000dd7:	5c                   	pop    %esp
c0000dd8:	c3                   	ret    

c0000dd9 <clear>:
c0000dd9:	55                   	push   %ebp
c0000dda:	89 e5                	mov    %esp,%ebp
c0000ddc:	fa                   	cli    
c0000ddd:	5d                   	pop    %ebp
c0000dde:	c3                   	ret    

c0000ddf <set>:
c0000ddf:	55                   	push   %ebp
c0000de0:	89 e5                	mov    %esp,%ebp
c0000de2:	fb                   	sti    
c0000de3:	5d                   	pop    %ebp
c0000de4:	c3                   	ret    

c0000de5 <load_local_gdt>:
c0000de5:	55                   	push   %ebp
c0000de6:	89 e5                	mov    %esp,%ebp
c0000de8:	8b 45 08             	mov    0x8(%ebp),%eax
c0000deb:	0f 01 10             	lgdtl  (%eax)
c0000dee:	5d                   	pop    %ebp
c0000def:	c3                   	ret    

c0000df0 <load_idt>:
c0000df0:	55                   	push   %ebp
c0000df1:	89 e5                	mov    %esp,%ebp
c0000df3:	8b 45 08             	mov    0x8(%ebp),%eax
c0000df6:	0f 01 18             	lidtl  (%eax)
c0000df9:	5d                   	pop    %ebp
c0000dfa:	c3                   	ret    

c0000dfb <genint>:
c0000dfb:	cd 00                	int    $0x0
c0000dfd:	eb 0d                	jmp    c0000e0c <_exit_routine>

c0000dff <_gen_interrupt>:
c0000dff:	55                   	push   %ebp
c0000e00:	89 e5                	mov    %esp,%ebp
c0000e02:	8b 45 08             	mov    0x8(%ebp),%eax
c0000e05:	a2 fc 0d 00 c0       	mov    %al,0xc0000dfc
c0000e0a:	eb ef                	jmp    c0000dfb <genint>

c0000e0c <_exit_routine>:
c0000e0c:	5d                   	pop    %ebp
c0000e0d:	c3                   	ret    

c0000e0e <_get_cpu_info>:
c0000e0e:	a1 00 00 00 00       	mov    0x0,%eax
c0000e13:	55                   	push   %ebp
c0000e14:	89 e5                	mov    %esp,%ebp
c0000e16:	0f a2                	cpuid  
c0000e18:	51                   	push   %ecx
c0000e19:	52                   	push   %edx
c0000e1a:	53                   	push   %ebx
c0000e1b:	8b 45 08             	mov    0x8(%ebp),%eax
c0000e1e:	5a                   	pop    %edx
c0000e1f:	5a                   	pop    %edx
c0000e20:	5a                   	pop    %edx
c0000e21:	5d                   	pop    %ebp
c0000e22:	c3                   	ret    

c0000e23 <_inport_read>:
c0000e23:	55                   	push   %ebp
c0000e24:	89 e5                	mov    %esp,%ebp
c0000e26:	8b 5d 08             	mov    0x8(%ebp),%ebx
c0000e29:	66 8b 13             	mov    (%ebx),%dx
c0000e2c:	ec                   	in     (%dx),%al
c0000e2d:	88 03                	mov    %al,(%ebx)
c0000e2f:	5d                   	pop    %ebp
c0000e30:	c3                   	ret    

c0000e31 <_outport_write>:
c0000e31:	55                   	push   %ebp
c0000e32:	89 e5                	mov    %esp,%ebp
c0000e34:	66 8b 55 08          	mov    0x8(%ebp),%dx
c0000e38:	8a 45 0c             	mov    0xc(%ebp),%al
c0000e3b:	ee                   	out    %al,(%dx)
c0000e3c:	5d                   	pop    %ebp
c0000e3d:	c3                   	ret    

c0000e3e <_i86_pit_irq_wrapper>:
c0000e3e:	60                   	pusha  
c0000e3f:	fc                   	cld    
c0000e40:	e8 4b 0d 00 00       	call   c0001b90 <i86_pit_irq>
c0000e45:	61                   	popa   
c0000e46:	cf                   	iret   

c0000e47 <_i86_keyboard_irq_wrapper>:
c0000e47:	60                   	pusha  
c0000e48:	fc                   	cld    
c0000e49:	e8 02 1b 00 00       	call   c0002950 <i86_kybrd_irq>
c0000e4e:	61                   	popa   
c0000e4f:	cf                   	iret   

c0000e50 <_i86_flpy_irq_wrapper>:
c0000e50:	60                   	pusha  
c0000e51:	fc                   	cld    
c0000e52:	e8 e9 22 00 00       	call   c0003140 <i86_flpy_irq>
c0000e57:	61                   	popa   
c0000e58:	cf                   	iret   

c0000e59 <_get_kernel_size>:
c0000e59:	55                   	push   %ebp
c0000e5a:	89 e5                	mov    %esp,%ebp
c0000e5c:	50                   	push   %eax
c0000e5d:	8b 45 08             	mov    0x8(%ebp),%eax
c0000e60:	89 10                	mov    %edx,(%eax)
c0000e62:	58                   	pop    %eax
c0000e63:	5d                   	pop    %ebp
c0000e64:	c3                   	ret    

c0000e65 <_invalidate_tlb>:
c0000e65:	fa                   	cli    
c0000e66:	55                   	push   %ebp
c0000e67:	89 e5                	mov    %esp,%ebp
c0000e69:	53                   	push   %ebx
c0000e6a:	8b 5d 08             	mov    0x8(%ebp),%ebx
c0000e6d:	0f 01 3b             	invlpg (%ebx)
c0000e70:	5b                   	pop    %ebx
c0000e71:	5d                   	pop    %ebp
c0000e72:	fb                   	sti    
c0000e73:	c3                   	ret    

c0000e74 <_enable_paging>:
c0000e74:	55                   	push   %ebp
c0000e75:	89 e5                	mov    %esp,%ebp
c0000e77:	53                   	push   %ebx
c0000e78:	50                   	push   %eax
c0000e79:	8b 5d 08             	mov    0x8(%ebp),%ebx
c0000e7c:	0f 20 c0             	mov    %cr0,%eax
c0000e7f:	83 fb 01             	cmp    $0x1,%ebx
c0000e82:	74 02                	je     c0000e86 <enable>
c0000e84:	eb 0a                	jmp    c0000e90 <disable>

c0000e86 <enable>:
c0000e86:	0d 00 00 00 80       	or     $0x80000000,%eax
c0000e8b:	0f 22 c0             	mov    %eax,%cr0
c0000e8e:	eb 08                	jmp    c0000e98 <done>

c0000e90 <disable>:
c0000e90:	25 ff ff ff 7f       	and    $0x7fffffff,%eax
c0000e95:	0f 22 c0             	mov    %eax,%cr0

c0000e98 <done>:
c0000e98:	58                   	pop    %eax
c0000e99:	5b                   	pop    %ebx
c0000e9a:	5d                   	pop    %ebp
c0000e9b:	c3                   	ret    

c0000e9c <_is_paging_enabled>:
c0000e9c:	55                   	push   %ebp
c0000e9d:	89 e5                	mov    %esp,%ebp
c0000e9f:	50                   	push   %eax
c0000ea0:	53                   	push   %ebx
c0000ea1:	8b 45 08             	mov    0x8(%ebp),%eax
c0000ea4:	0f 20 c3             	mov    %cr0,%ebx
c0000ea7:	89 18                	mov    %ebx,(%eax)
c0000ea9:	5b                   	pop    %ebx
c0000eaa:	58                   	pop    %eax
c0000eab:	5d                   	pop    %ebp
c0000eac:	c3                   	ret    

c0000ead <_load_pdbr>:
c0000ead:	55                   	push   %ebp
c0000eae:	89 e5                	mov    %esp,%ebp
c0000eb0:	53                   	push   %ebx
c0000eb1:	8b 5d 08             	mov    0x8(%ebp),%ebx
c0000eb4:	8b 03                	mov    (%ebx),%eax
c0000eb6:	0f 22 d8             	mov    %eax,%cr3
c0000eb9:	5b                   	pop    %ebx
c0000eba:	5d                   	pop    %ebp
c0000ebb:	c3                   	ret    

c0000ebc <_get_pdbr>:
c0000ebc:	55                   	push   %ebp
c0000ebd:	89 e5                	mov    %esp,%ebp
c0000ebf:	0f 20 d8             	mov    %cr3,%eax
c0000ec2:	5d                   	pop    %ebp
c0000ec3:	c3                   	ret    
c0000ec4:	66 90                	xchg   %ax,%ax
c0000ec6:	66 90                	xchg   %ax,%ax
c0000ec8:	66 90                	xchg   %ax,%ax
c0000eca:	66 90                	xchg   %ax,%ax
c0000ecc:	66 90                	xchg   %ax,%ax
c0000ece:	66 90                	xchg   %ax,%ax

c0000ed0 <i86_cpu_initialize>:
c0000ed0:	83 ec 0c             	sub    $0xc,%esp
c0000ed3:	e8 18 01 00 00       	call   c0000ff0 <i86_gdt_initialize>
c0000ed8:	83 ec 0c             	sub    $0xc,%esp
c0000edb:	6a 08                	push   $0x8
c0000edd:	e8 6e 04 00 00       	call   c0001350 <i86_idt_initialize>
c0000ee2:	31 c0                	xor    %eax,%eax
c0000ee4:	83 c4 1c             	add    $0x1c,%esp
c0000ee7:	c3                   	ret    
c0000ee8:	90                   	nop
c0000ee9:	8d b4 26 00 00 00 00 	lea    0x0(%esi,%eiz,1),%esi

c0000ef0 <i86_cpu_shutdown>:
c0000ef0:	f3 c3                	repz ret 
c0000ef2:	8d b4 26 00 00 00 00 	lea    0x0(%esi,%eiz,1),%esi
c0000ef9:	8d bc 27 00 00 00 00 	lea    0x0(%edi,%eiz,1),%edi

c0000f00 <i86_cpu_get_vender>:
c0000f00:	83 ec 18             	sub    $0x18,%esp
c0000f03:	68 40 80 00 c0       	push   $0xc0008040
c0000f08:	e8 01 ff ff ff       	call   c0000e0e <_get_cpu_info>
c0000f0d:	b8 40 80 00 c0       	mov    $0xc0008040,%eax
c0000f12:	83 c4 1c             	add    $0x1c,%esp
c0000f15:	c3                   	ret    
c0000f16:	66 90                	xchg   %ax,%ax
c0000f18:	66 90                	xchg   %ax,%ax
c0000f1a:	66 90                	xchg   %ax,%ax
c0000f1c:	66 90                	xchg   %ax,%ax
c0000f1e:	66 90                	xchg   %ax,%ax

c0000f20 <gdt_set_descriptor>:
c0000f20:	55                   	push   %ebp
c0000f21:	57                   	push   %edi
c0000f22:	56                   	push   %esi
c0000f23:	53                   	push   %ebx
c0000f24:	83 ec 1c             	sub    $0x1c,%esp
c0000f27:	8b 5c 24 30          	mov    0x30(%esp),%ebx
c0000f2b:	8b 44 24 3c          	mov    0x3c(%esp),%eax
c0000f2f:	8b 54 24 40          	mov    0x40(%esp),%edx
c0000f33:	8b 7c 24 34          	mov    0x34(%esp),%edi
c0000f37:	8b 6c 24 38          	mov    0x38(%esp),%ebp
c0000f3b:	8b 74 24 44          	mov    0x44(%esp),%esi
c0000f3f:	83 fb 03             	cmp    $0x3,%ebx
c0000f42:	89 04 24             	mov    %eax,(%esp)
c0000f45:	8b 4c 24 48          	mov    0x48(%esp),%ecx
c0000f49:	89 54 24 04          	mov    %edx,0x4(%esp)
c0000f4d:	77 71                	ja     c0000fc0 <gdt_set_descriptor+0xa0>
c0000f4f:	8d 04 dd 68 80 00 c0 	lea    -0x3fff7f98(,%ebx,8),%eax
c0000f56:	89 4c 24 0c          	mov    %ecx,0xc(%esp)
c0000f5a:	83 ec 04             	sub    $0x4,%esp
c0000f5d:	6a 08                	push   $0x8
c0000f5f:	6a 00                	push   $0x0
c0000f61:	50                   	push   %eax
c0000f62:	e8 99 f7 ff ff       	call   c0000700 <memset>
c0000f67:	89 f8                	mov    %edi,%eax
c0000f69:	66 89 3c dd 6a 80 00 	mov    %di,-0x3fff7f96(,%ebx,8)
c0000f70:	c0 
c0000f71:	8b 4c 24 1c          	mov    0x1c(%esp),%ecx
c0000f75:	0f ac e8 10          	shrd   $0x10,%ebp,%eax
c0000f79:	88 04 dd 6c 80 00 c0 	mov    %al,-0x3fff7f94(,%ebx,8)
c0000f80:	89 f8                	mov    %edi,%eax
c0000f82:	8b 7c 24 10          	mov    0x10(%esp),%edi
c0000f86:	0f ac e8 18          	shrd   $0x18,%ebp,%eax
c0000f8a:	8b 6c 24 14          	mov    0x14(%esp),%ebp
c0000f8e:	83 c4 10             	add    $0x10,%esp
c0000f91:	88 04 dd 6f 80 00 c0 	mov    %al,-0x3fff7f91(,%ebx,8)
c0000f98:	89 f0                	mov    %esi,%eax
c0000f9a:	66 89 3c dd 68 80 00 	mov    %di,-0x3fff7f98(,%ebx,8)
c0000fa1:	c0 
c0000fa2:	88 04 dd 6d 80 00 c0 	mov    %al,-0x3fff7f93(,%ebx,8)
c0000fa9:	89 f8                	mov    %edi,%eax
c0000fab:	89 cf                	mov    %ecx,%edi
c0000fad:	0f ac e8 10          	shrd   $0x10,%ebp,%eax
c0000fb1:	83 e7 f0             	and    $0xfffffff0,%edi
c0000fb4:	83 e0 0f             	and    $0xf,%eax
c0000fb7:	09 f8                	or     %edi,%eax
c0000fb9:	88 04 dd 6e 80 00 c0 	mov    %al,-0x3fff7f92(,%ebx,8)
c0000fc0:	83 c4 1c             	add    $0x1c,%esp
c0000fc3:	5b                   	pop    %ebx
c0000fc4:	5e                   	pop    %esi
c0000fc5:	5f                   	pop    %edi
c0000fc6:	5d                   	pop    %ebp
c0000fc7:	c3                   	ret    
c0000fc8:	90                   	nop
c0000fc9:	8d b4 26 00 00 00 00 	lea    0x0(%esi,%eiz,1),%esi

c0000fd0 <i86_gdt_get_descriptor>:
c0000fd0:	8b 54 24 04          	mov    0x4(%esp),%edx
c0000fd4:	8d 04 d5 68 80 00 c0 	lea    -0x3fff7f98(,%edx,8),%eax
c0000fdb:	83 fa 03             	cmp    $0x3,%edx
c0000fde:	ba 00 00 00 00       	mov    $0x0,%edx
c0000fe3:	0f 4f c2             	cmovg  %edx,%eax
c0000fe6:	c3                   	ret    
c0000fe7:	89 f6                	mov    %esi,%esi
c0000fe9:	8d bc 27 00 00 00 00 	lea    0x0(%edi,%eiz,1),%edi

c0000ff0 <i86_gdt_initialize>:
c0000ff0:	83 ec 10             	sub    $0x10,%esp
c0000ff3:	b8 17 00 00 00       	mov    $0x17,%eax
c0000ff8:	c7 05 62 80 00 c0 68 	movl   $0xc0008068,0xc0008062
c0000fff:	80 00 c0 
c0001002:	6a 08                	push   $0x8
c0001004:	6a 00                	push   $0x0
c0001006:	68 68 80 00 c0       	push   $0xc0008068
c000100b:	66 a3 60 80 00 c0    	mov    %ax,0xc0008060
c0001011:	e8 ea f6 ff ff       	call   c0000700 <memset>
c0001016:	83 c4 0c             	add    $0xc,%esp
c0001019:	31 d2                	xor    %edx,%edx
c000101b:	31 c9                	xor    %ecx,%ecx
c000101d:	6a 08                	push   $0x8
c000101f:	6a 00                	push   $0x0
c0001021:	68 70 80 00 c0       	push   $0xc0008070
c0001026:	66 89 15 6a 80 00 c0 	mov    %dx,0xc000806a
c000102d:	66 89 0d 68 80 00 c0 	mov    %cx,0xc0008068
c0001034:	c6 05 6c 80 00 c0 00 	movb   $0x0,0xc000806c
c000103b:	c6 05 6f 80 00 c0 00 	movb   $0x0,0xc000806f
c0001042:	c6 05 6d 80 00 c0 00 	movb   $0x0,0xc000806d
c0001049:	c6 05 6e 80 00 c0 00 	movb   $0x0,0xc000806e
c0001050:	e8 ab f6 ff ff       	call   c0000700 <memset>
c0001055:	83 c4 0c             	add    $0xc,%esp
c0001058:	31 c0                	xor    %eax,%eax
c000105a:	c6 05 74 80 00 c0 00 	movb   $0x0,0xc0008074
c0001061:	6a 08                	push   $0x8
c0001063:	6a 00                	push   $0x0
c0001065:	68 78 80 00 c0       	push   $0xc0008078
c000106a:	66 a3 72 80 00 c0    	mov    %ax,0xc0008072
c0001070:	b8 ff ff ff ff       	mov    $0xffffffff,%eax
c0001075:	c6 05 77 80 00 c0 00 	movb   $0x0,0xc0008077
c000107c:	66 a3 70 80 00 c0    	mov    %ax,0xc0008070
c0001082:	c6 05 75 80 00 c0 9a 	movb   $0x9a,0xc0008075
c0001089:	c6 05 76 80 00 c0 cf 	movb   $0xcf,0xc0008076
c0001090:	e8 6b f6 ff ff       	call   c0000700 <memset>
c0001095:	31 c0                	xor    %eax,%eax
c0001097:	c7 04 24 60 80 00 c0 	movl   $0xc0008060,(%esp)
c000109e:	c6 05 7c 80 00 c0 00 	movb   $0x0,0xc000807c
c00010a5:	66 a3 7a 80 00 c0    	mov    %ax,0xc000807a
c00010ab:	b8 ff ff ff ff       	mov    $0xffffffff,%eax
c00010b0:	c6 05 7f 80 00 c0 00 	movb   $0x0,0xc000807f
c00010b7:	66 a3 78 80 00 c0    	mov    %ax,0xc0008078
c00010bd:	c6 05 7d 80 00 c0 92 	movb   $0x92,0xc000807d
c00010c4:	c6 05 7e 80 00 c0 cf 	movb   $0xcf,0xc000807e
c00010cb:	e8 15 fd ff ff       	call   c0000de5 <load_local_gdt>
c00010d0:	31 c0                	xor    %eax,%eax
c00010d2:	83 c4 1c             	add    $0x1c,%esp
c00010d5:	c3                   	ret    
c00010d6:	66 90                	xchg   %ax,%ax
c00010d8:	66 90                	xchg   %ax,%ax
c00010da:	66 90                	xchg   %ax,%ax
c00010dc:	66 90                	xchg   %ax,%ax
c00010de:	66 90                	xchg   %ax,%ax

c00010e0 <hal_initialize>:
c00010e0:	83 ec 0c             	sub    $0xc,%esp
c00010e3:	e8 e8 fd ff ff       	call   c0000ed0 <i86_cpu_initialize>
c00010e8:	83 ec 08             	sub    $0x8,%esp
c00010eb:	6a 28                	push   $0x28
c00010ed:	6a 20                	push   $0x20
c00010ef:	e8 0c 0a 00 00       	call   c0001b00 <i86_pic_initialize>
c00010f4:	e8 c7 0b 00 00       	call   c0001cc0 <i86_pit_initialize>
c00010f9:	83 c4 0c             	add    $0xc,%esp
c00010fc:	6a 06                	push   $0x6
c00010fe:	6a 00                	push   $0x0
c0001100:	6a 64                	push   $0x64
c0001102:	e8 49 0b 00 00       	call   c0001c50 <i86_pit_start_counter>
c0001107:	e8 d3 fc ff ff       	call   c0000ddf <set>
c000110c:	31 c0                	xor    %eax,%eax
c000110e:	83 c4 1c             	add    $0x1c,%esp
c0001111:	c3                   	ret    
c0001112:	8d b4 26 00 00 00 00 	lea    0x0(%esi,%eiz,1),%esi
c0001119:	8d bc 27 00 00 00 00 	lea    0x0(%edi,%eiz,1),%edi

c0001120 <hal_shutdown>:
c0001120:	83 ec 0c             	sub    $0xc,%esp
c0001123:	e8 c8 fd ff ff       	call   c0000ef0 <i86_cpu_shutdown>
c0001128:	31 c0                	xor    %eax,%eax
c000112a:	83 c4 0c             	add    $0xc,%esp
c000112d:	c3                   	ret    
c000112e:	66 90                	xchg   %ax,%ax

c0001130 <interruptdone>:
c0001130:	83 ec 0c             	sub    $0xc,%esp
c0001133:	8b 44 24 10          	mov    0x10(%esp),%eax
c0001137:	83 f8 10             	cmp    $0x10,%eax
c000113a:	77 14                	ja     c0001150 <interruptdone+0x20>
c000113c:	83 f8 07             	cmp    $0x7,%eax
c000113f:	77 1f                	ja     c0001160 <interruptdone+0x30>
c0001141:	83 ec 08             	sub    $0x8,%esp
c0001144:	6a 00                	push   $0x0
c0001146:	6a 20                	push   $0x20
c0001148:	e8 23 09 00 00       	call   c0001a70 <i86_pic_send_command>
c000114d:	83 c4 10             	add    $0x10,%esp
c0001150:	83 c4 0c             	add    $0xc,%esp
c0001153:	c3                   	ret    
c0001154:	8d b6 00 00 00 00    	lea    0x0(%esi),%esi
c000115a:	8d bf 00 00 00 00    	lea    0x0(%edi),%edi
c0001160:	83 ec 08             	sub    $0x8,%esp
c0001163:	6a 01                	push   $0x1
c0001165:	6a 20                	push   $0x20
c0001167:	e8 04 09 00 00       	call   c0001a70 <i86_pic_send_command>
c000116c:	83 c4 10             	add    $0x10,%esp
c000116f:	eb d0                	jmp    c0001141 <interruptdone+0x11>
c0001171:	eb 0d                	jmp    c0001180 <sound>
c0001173:	90                   	nop
c0001174:	90                   	nop
c0001175:	90                   	nop
c0001176:	90                   	nop
c0001177:	90                   	nop
c0001178:	90                   	nop
c0001179:	90                   	nop
c000117a:	90                   	nop
c000117b:	90                   	nop
c000117c:	90                   	nop
c000117d:	90                   	nop
c000117e:	90                   	nop
c000117f:	90                   	nop

c0001180 <sound>:
c0001180:	83 ec 14             	sub    $0x14,%esp
c0001183:	8b 44 24 18          	mov    0x18(%esp),%eax
c0001187:	8d 04 85 03 00 00 00 	lea    0x3(,%eax,4),%eax
c000118e:	0f b6 c0             	movzbl %al,%eax
c0001191:	50                   	push   %eax
c0001192:	6a 61                	push   $0x61
c0001194:	e8 98 fc ff ff       	call   c0000e31 <_outport_write>
c0001199:	83 c4 1c             	add    $0x1c,%esp
c000119c:	c3                   	ret    
c000119d:	8d 76 00             	lea    0x0(%esi),%esi

c00011a0 <inportb>:
c00011a0:	83 ec 28             	sub    $0x28,%esp
c00011a3:	8b 44 24 2c          	mov    0x2c(%esp),%eax
c00011a7:	66 89 44 24 18       	mov    %ax,0x18(%esp)
c00011ac:	8d 44 24 18          	lea    0x18(%esp),%eax
c00011b0:	50                   	push   %eax
c00011b1:	e8 6d fc ff ff       	call   c0000e23 <_inport_read>
c00011b6:	0f b6 44 24 1c       	movzbl 0x1c(%esp),%eax
c00011bb:	83 c4 2c             	add    $0x2c,%esp
c00011be:	c3                   	ret    
c00011bf:	90                   	nop

c00011c0 <outportb>:
c00011c0:	0f b6 44 24 08       	movzbl 0x8(%esp),%eax
c00011c5:	89 44 24 08          	mov    %eax,0x8(%esp)
c00011c9:	0f b7 44 24 04       	movzwl 0x4(%esp),%eax
c00011ce:	89 44 24 04          	mov    %eax,0x4(%esp)
c00011d2:	e9 5a fc ff ff       	jmp    c0000e31 <_outport_write>
c00011d7:	89 f6                	mov    %esi,%esi
c00011d9:	8d bc 27 00 00 00 00 	lea    0x0(%edi,%eiz,1),%edi

c00011e0 <enable>:
c00011e0:	e9 fa fb ff ff       	jmp    c0000ddf <set>
c00011e5:	8d 74 26 00          	lea    0x0(%esi,%eiz,1),%esi
c00011e9:	8d bc 27 00 00 00 00 	lea    0x0(%edi,%eiz,1),%edi

c00011f0 <disable>:
c00011f0:	e9 e4 fb ff ff       	jmp    c0000dd9 <clear>
c00011f5:	8d 74 26 00          	lea    0x0(%esi,%eiz,1),%esi
c00011f9:	8d bc 27 00 00 00 00 	lea    0x0(%edi,%eiz,1),%edi

c0001200 <setvect>:
c0001200:	83 ec 0c             	sub    $0xc,%esp
c0001203:	ff 74 24 14          	pushl  0x14(%esp)
c0001207:	6a 08                	push   $0x8
c0001209:	68 8e 00 00 00       	push   $0x8e
c000120e:	ff 74 24 1c          	pushl  0x1c(%esp)
c0001212:	e8 d9 00 00 00       	call   c00012f0 <i86_install_ir>
c0001217:	83 c4 1c             	add    $0x1c,%esp
c000121a:	c3                   	ret    
c000121b:	90                   	nop
c000121c:	8d 74 26 00          	lea    0x0(%esi,%eiz,1),%esi

c0001220 <getvect>:
c0001220:	83 ec 18             	sub    $0x18,%esp
c0001223:	ff 74 24 1c          	pushl  0x1c(%esp)
c0001227:	e8 a4 00 00 00       	call   c00012d0 <i86_get_ir>
c000122c:	83 c4 10             	add    $0x10,%esp
c000122f:	85 c0                	test   %eax,%eax
c0001231:	74 1d                	je     c0001250 <getvect+0x30>
c0001233:	0f b7 50 06          	movzwl 0x6(%eax),%edx
c0001237:	0f b7 00             	movzwl (%eax),%eax
c000123a:	c1 e2 10             	shl    $0x10,%edx
c000123d:	09 d0                	or     %edx,%eax
c000123f:	83 c4 0c             	add    $0xc,%esp
c0001242:	c3                   	ret    
c0001243:	8d b6 00 00 00 00    	lea    0x0(%esi),%esi
c0001249:	8d bc 27 00 00 00 00 	lea    0x0(%edi,%eiz,1),%edi
c0001250:	31 c0                	xor    %eax,%eax
c0001252:	eb eb                	jmp    c000123f <getvect+0x1f>
c0001254:	8d b6 00 00 00 00    	lea    0x0(%esi),%esi
c000125a:	8d bf 00 00 00 00    	lea    0x0(%edi),%edi

c0001260 <get_cpu_vender>:
c0001260:	e9 9b fc ff ff       	jmp    c0000f00 <i86_cpu_get_vender>
c0001265:	8d 74 26 00          	lea    0x0(%esi,%eiz,1),%esi
c0001269:	8d bc 27 00 00 00 00 	lea    0x0(%edi,%eiz,1),%edi

c0001270 <get_tick_count>:
c0001270:	e9 4b 09 00 00       	jmp    c0001bc0 <i86_pit_get_tick_count>
c0001275:	8d 74 26 00          	lea    0x0(%esi,%eiz,1),%esi
c0001279:	8d bc 27 00 00 00 00 	lea    0x0(%edi,%eiz,1),%edi

c0001280 <geninterrupt>:
c0001280:	e9 7a fb ff ff       	jmp    c0000dff <_gen_interrupt>
c0001285:	66 90                	xchg   %ax,%ax
c0001287:	66 90                	xchg   %ax,%ax
c0001289:	66 90                	xchg   %ax,%ax
c000128b:	66 90                	xchg   %ax,%ax
c000128d:	66 90                	xchg   %ax,%ax
c000128f:	90                   	nop

c0001290 <i86_default_handler>:
c0001290:	83 ec 18             	sub    $0x18,%esp
c0001293:	6a 18                	push   $0x18
c0001295:	e8 e6 f0 ff ff       	call   c0000380 <debug_clr_scr>
c000129a:	58                   	pop    %eax
c000129b:	5a                   	pop    %edx
c000129c:	6a 00                	push   $0x0
c000129e:	6a 00                	push   $0x0
c00012a0:	e8 9b f0 ff ff       	call   c0000340 <debug_goto_xy>
c00012a5:	c7 04 24 1e 00 00 00 	movl   $0x1e,(%esp)
c00012ac:	e8 6f f0 ff ff       	call   c0000320 <debug_set_color>
c00012b1:	c7 04 24 40 65 00 c0 	movl   $0xc0006540,(%esp)
c00012b8:	e8 03 f1 ff ff       	call   c00003c0 <debug_puts>
c00012bd:	83 c4 10             	add    $0x10,%esp
c00012c0:	eb fe                	jmp    c00012c0 <i86_default_handler+0x30>
c00012c2:	8d b4 26 00 00 00 00 	lea    0x0(%esi,%eiz,1),%esi
c00012c9:	8d bc 27 00 00 00 00 	lea    0x0(%edi,%eiz,1),%edi

c00012d0 <i86_get_ir>:
c00012d0:	8b 54 24 04          	mov    0x4(%esp),%edx
c00012d4:	8d 04 d5 a0 80 00 c0 	lea    -0x3fff7f60(,%edx,8),%eax
c00012db:	81 fa 00 01 00 00    	cmp    $0x100,%edx
c00012e1:	ba 00 00 00 00       	mov    $0x0,%edx
c00012e6:	0f 47 c2             	cmova  %edx,%eax
c00012e9:	c3                   	ret    
c00012ea:	8d b6 00 00 00 00    	lea    0x0(%esi),%esi

c00012f0 <i86_install_ir>:
c00012f0:	56                   	push   %esi
c00012f1:	53                   	push   %ebx
c00012f2:	8b 44 24 18          	mov    0x18(%esp),%eax
c00012f6:	8b 4c 24 0c          	mov    0xc(%esp),%ecx
c00012fa:	8b 74 24 10          	mov    0x10(%esp),%esi
c00012fe:	8b 5c 24 14          	mov    0x14(%esp),%ebx
c0001302:	85 c0                	test   %eax,%eax
c0001304:	74 36                	je     c000133c <i86_install_ir+0x4c>
c0001306:	81 f9 00 01 00 00    	cmp    $0x100,%ecx
c000130c:	77 2e                	ja     c000133c <i86_install_ir+0x4c>
c000130e:	99                   	cltd   
c000130f:	66 89 04 cd a0 80 00 	mov    %ax,-0x3fff7f60(,%ecx,8)
c0001316:	c0 
c0001317:	c6 04 cd a4 80 00 c0 	movb   $0x0,-0x3fff7f5c(,%ecx,8)
c000131e:	00 
c000131f:	0f ac d0 10          	shrd   $0x10,%edx,%eax
c0001323:	66 89 1c cd a2 80 00 	mov    %bx,-0x3fff7f5e(,%ecx,8)
c000132a:	c0 
c000132b:	66 89 04 cd a6 80 00 	mov    %ax,-0x3fff7f5a(,%ecx,8)
c0001332:	c0 
c0001333:	89 f0                	mov    %esi,%eax
c0001335:	88 04 cd a5 80 00 c0 	mov    %al,-0x3fff7f5b(,%ecx,8)
c000133c:	31 c0                	xor    %eax,%eax
c000133e:	5b                   	pop    %ebx
c000133f:	5e                   	pop    %esi
c0001340:	c3                   	ret    
c0001341:	eb 0d                	jmp    c0001350 <i86_idt_initialize>
c0001343:	90                   	nop
c0001344:	90                   	nop
c0001345:	90                   	nop
c0001346:	90                   	nop
c0001347:	90                   	nop
c0001348:	90                   	nop
c0001349:	90                   	nop
c000134a:	90                   	nop
c000134b:	90                   	nop
c000134c:	90                   	nop
c000134d:	90                   	nop
c000134e:	90                   	nop
c000134f:	90                   	nop

c0001350 <i86_idt_initialize>:
c0001350:	53                   	push   %ebx
c0001351:	b8 ff 07 00 00       	mov    $0x7ff,%eax
c0001356:	83 ec 0c             	sub    $0xc,%esp
c0001359:	66 a3 80 80 00 c0    	mov    %ax,0xc0008080
c000135f:	c7 05 82 80 00 c0 a0 	movl   $0xc00080a0,0xc0008082
c0001366:	80 00 c0 
c0001369:	0f b7 5c 24 14       	movzwl 0x14(%esp),%ebx
c000136e:	68 ff 07 00 00       	push   $0x7ff
c0001373:	6a 00                	push   $0x0
c0001375:	68 a0 80 00 c0       	push   $0xc00080a0
c000137a:	e8 81 f3 ff ff       	call   c0000700 <memset>
c000137f:	b8 90 12 00 c0       	mov    $0xc0001290,%eax
c0001384:	83 c4 10             	add    $0x10,%esp
c0001387:	99                   	cltd   
c0001388:	89 c1                	mov    %eax,%ecx
c000138a:	0f ac d0 10          	shrd   $0x10,%edx,%eax
c000138e:	89 c2                	mov    %eax,%edx
c0001390:	b8 a0 80 00 c0       	mov    $0xc00080a0,%eax
c0001395:	8d 74 26 00          	lea    0x0(%esi,%eiz,1),%esi
c0001399:	8d bc 27 00 00 00 00 	lea    0x0(%edi,%eiz,1),%edi
c00013a0:	66 89 08             	mov    %cx,(%eax)
c00013a3:	66 89 50 06          	mov    %dx,0x6(%eax)
c00013a7:	83 c0 08             	add    $0x8,%eax
c00013aa:	c6 40 fc 00          	movb   $0x0,-0x4(%eax)
c00013ae:	c6 40 fd 8e          	movb   $0x8e,-0x3(%eax)
c00013b2:	66 89 58 fa          	mov    %bx,-0x6(%eax)
c00013b6:	3d a0 88 00 c0       	cmp    $0xc00088a0,%eax
c00013bb:	75 e3                	jne    c00013a0 <i86_idt_initialize+0x50>
c00013bd:	83 ec 0c             	sub    $0xc,%esp
c00013c0:	68 80 80 00 c0       	push   $0xc0008080
c00013c5:	e8 26 fa ff ff       	call   c0000df0 <load_idt>
c00013ca:	83 c4 18             	add    $0x18,%esp
c00013cd:	31 c0                	xor    %eax,%eax
c00013cf:	5b                   	pop    %ebx
c00013d0:	c3                   	ret    
c00013d1:	66 90                	xchg   %ax,%ax
c00013d3:	66 90                	xchg   %ax,%ax
c00013d5:	66 90                	xchg   %ax,%ax
c00013d7:	66 90                	xchg   %ax,%ax
c00013d9:	66 90                	xchg   %ax,%ax
c00013db:	66 90                	xchg   %ax,%ax
c00013dd:	66 90                	xchg   %ax,%ax
c00013df:	90                   	nop

c00013e0 <vsprintf>:
c00013e0:	55                   	push   %ebp
c00013e1:	57                   	push   %edi
c00013e2:	56                   	push   %esi
c00013e3:	53                   	push   %ebx
c00013e4:	83 ec 3c             	sub    $0x3c,%esp
c00013e7:	8b 6c 24 54          	mov    0x54(%esp),%ebp
c00013eb:	8b 74 24 58          	mov    0x58(%esp),%esi
c00013ef:	85 ed                	test   %ebp,%ebp
c00013f1:	0f 84 79 01 00 00    	je     c0001570 <vsprintf+0x190>
c00013f7:	8b 5c 24 50          	mov    0x50(%esp),%ebx
c00013fb:	85 db                	test   %ebx,%ebx
c00013fd:	0f 84 6d 01 00 00    	je     c0001570 <vsprintf+0x190>
c0001403:	83 ec 0c             	sub    $0xc,%esp
c0001406:	31 db                	xor    %ebx,%ebx
c0001408:	31 ff                	xor    %edi,%edi
c000140a:	55                   	push   %ebp
c000140b:	e8 90 f2 ff ff       	call   c00006a0 <strlen>
c0001410:	83 c4 10             	add    $0x10,%esp
c0001413:	8d b6 00 00 00 00    	lea    0x0(%esi),%esi
c0001419:	8d bc 27 00 00 00 00 	lea    0x0(%edi,%eiz,1),%edi
c0001420:	0f b6 44 1d 00       	movzbl 0x0(%ebp,%ebx,1),%eax
c0001425:	3c 25                	cmp    $0x25,%al
c0001427:	0f 85 23 01 00 00    	jne    c0001550 <vsprintf+0x170>
c000142d:	0f b6 44 1d 01       	movzbl 0x1(%ebp,%ebx,1),%eax
c0001432:	8d 4b 01             	lea    0x1(%ebx),%ecx
c0001435:	83 e8 58             	sub    $0x58,%eax
c0001438:	3c 20                	cmp    $0x20,%al
c000143a:	0f 87 20 01 00 00    	ja     c0001560 <vsprintf+0x180>
c0001440:	0f b6 c0             	movzbl %al,%eax
c0001443:	ff 24 85 84 40 00 c0 	jmp    *-0x3fffbf7c(,%eax,4)
c000144a:	8d b6 00 00 00 00    	lea    0x0(%esi),%esi
c0001450:	8d 4e 04             	lea    0x4(%esi),%ecx
c0001453:	8b 36                	mov    (%esi),%esi
c0001455:	31 c0                	xor    %eax,%eax
c0001457:	c7 44 04 10 00 00 00 	movl   $0x0,0x10(%esp,%eax,1)
c000145e:	00 
c000145f:	83 c0 04             	add    $0x4,%eax
c0001462:	83 f8 20             	cmp    $0x20,%eax
c0001465:	72 f0                	jb     c0001457 <vsprintf+0x77>
c0001467:	89 4c 24 0c          	mov    %ecx,0xc(%esp)
c000146b:	83 ec 08             	sub    $0x8,%esp
c000146e:	56                   	push   %esi
c000146f:	8d 44 24 1c          	lea    0x1c(%esp),%eax
c0001473:	50                   	push   %eax
c0001474:	e8 e7 f1 ff ff       	call   c0000660 <strcpy>
c0001479:	e9 9d 00 00 00       	jmp    c000151b <vsprintf+0x13b>
c000147e:	66 90                	xchg   %ax,%ax
c0001480:	8d 4e 04             	lea    0x4(%esi),%ecx
c0001483:	8b 36                	mov    (%esi),%esi
c0001485:	31 c0                	xor    %eax,%eax
c0001487:	c7 44 04 10 00 00 00 	movl   $0x0,0x10(%esp,%eax,1)
c000148e:	00 
c000148f:	83 c0 04             	add    $0x4,%eax
c0001492:	83 f8 20             	cmp    $0x20,%eax
c0001495:	72 f0                	jb     c0001487 <vsprintf+0xa7>
c0001497:	89 4c 24 0c          	mov    %ecx,0xc(%esp)
c000149b:	83 ec 04             	sub    $0x4,%esp
c000149e:	8d 44 24 14          	lea    0x14(%esp),%eax
c00014a2:	50                   	push   %eax
c00014a3:	6a 0a                	push   $0xa
c00014a5:	56                   	push   %esi
c00014a6:	e8 45 ee ff ff       	call   c00002f0 <itoa_s>
c00014ab:	eb 6e                	jmp    c000151b <vsprintf+0x13b>
c00014ad:	8d 76 00             	lea    0x0(%esi),%esi
c00014b0:	8b 06                	mov    (%esi),%eax
c00014b2:	8b 4c 24 50          	mov    0x50(%esp),%ecx
c00014b6:	83 c3 02             	add    $0x2,%ebx
c00014b9:	83 c6 04             	add    $0x4,%esi
c00014bc:	88 04 39             	mov    %al,(%ecx,%edi,1)
c00014bf:	90                   	nop
c00014c0:	83 ec 0c             	sub    $0xc,%esp
c00014c3:	83 c7 01             	add    $0x1,%edi
c00014c6:	55                   	push   %ebp
c00014c7:	e8 d4 f1 ff ff       	call   c00006a0 <strlen>
c00014cc:	83 c4 10             	add    $0x10,%esp
c00014cf:	39 d8                	cmp    %ebx,%eax
c00014d1:	0f 83 49 ff ff ff    	jae    c0001420 <vsprintf+0x40>
c00014d7:	83 c4 3c             	add    $0x3c,%esp
c00014da:	89 d8                	mov    %ebx,%eax
c00014dc:	5b                   	pop    %ebx
c00014dd:	5e                   	pop    %esi
c00014de:	5f                   	pop    %edi
c00014df:	5d                   	pop    %ebp
c00014e0:	c3                   	ret    
c00014e1:	eb 0d                	jmp    c00014f0 <vsprintf+0x110>
c00014e3:	90                   	nop
c00014e4:	90                   	nop
c00014e5:	90                   	nop
c00014e6:	90                   	nop
c00014e7:	90                   	nop
c00014e8:	90                   	nop
c00014e9:	90                   	nop
c00014ea:	90                   	nop
c00014eb:	90                   	nop
c00014ec:	90                   	nop
c00014ed:	90                   	nop
c00014ee:	90                   	nop
c00014ef:	90                   	nop
c00014f0:	8d 4e 04             	lea    0x4(%esi),%ecx
c00014f3:	8b 36                	mov    (%esi),%esi
c00014f5:	31 c0                	xor    %eax,%eax
c00014f7:	c7 44 04 10 00 00 00 	movl   $0x0,0x10(%esp,%eax,1)
c00014fe:	00 
c00014ff:	83 c0 04             	add    $0x4,%eax
c0001502:	83 f8 20             	cmp    $0x20,%eax
c0001505:	72 f0                	jb     c00014f7 <vsprintf+0x117>
c0001507:	89 4c 24 0c          	mov    %ecx,0xc(%esp)
c000150b:	83 ec 04             	sub    $0x4,%esp
c000150e:	8d 44 24 14          	lea    0x14(%esp),%eax
c0001512:	50                   	push   %eax
c0001513:	6a 10                	push   $0x10
c0001515:	56                   	push   %esi
c0001516:	e8 d5 ed ff ff       	call   c00002f0 <itoa_s>
c000151b:	58                   	pop    %eax
c000151c:	5a                   	pop    %edx
c000151d:	83 c3 02             	add    $0x2,%ebx
c0001520:	8d 44 24 18          	lea    0x18(%esp),%eax
c0001524:	50                   	push   %eax
c0001525:	8b 44 24 5c          	mov    0x5c(%esp),%eax
c0001529:	01 f8                	add    %edi,%eax
c000152b:	50                   	push   %eax
c000152c:	e8 2f f1 ff ff       	call   c0000660 <strcpy>
c0001531:	59                   	pop    %ecx
c0001532:	8d 44 24 1c          	lea    0x1c(%esp),%eax
c0001536:	50                   	push   %eax
c0001537:	e8 64 f1 ff ff       	call   c00006a0 <strlen>
c000153c:	83 c4 10             	add    $0x10,%esp
c000153f:	8b 4c 24 0c          	mov    0xc(%esp),%ecx
c0001543:	8d 7c 38 fe          	lea    -0x2(%eax,%edi,1),%edi
c0001547:	89 ce                	mov    %ecx,%esi
c0001549:	e9 72 ff ff ff       	jmp    c00014c0 <vsprintf+0xe0>
c000154e:	66 90                	xchg   %ax,%ax
c0001550:	8b 54 24 50          	mov    0x50(%esp),%edx
c0001554:	83 c3 01             	add    $0x1,%ebx
c0001557:	88 04 3a             	mov    %al,(%edx,%edi,1)
c000155a:	e9 61 ff ff ff       	jmp    c00014c0 <vsprintf+0xe0>
c000155f:	90                   	nop
c0001560:	89 cb                	mov    %ecx,%ebx
c0001562:	e9 59 ff ff ff       	jmp    c00014c0 <vsprintf+0xe0>
c0001567:	89 f6                	mov    %esi,%esi
c0001569:	8d bc 27 00 00 00 00 	lea    0x0(%edi,%eiz,1),%edi
c0001570:	83 c4 3c             	add    $0x3c,%esp
c0001573:	31 c0                	xor    %eax,%eax
c0001575:	5b                   	pop    %ebx
c0001576:	5e                   	pop    %esi
c0001577:	5f                   	pop    %edi
c0001578:	5d                   	pop    %ebp
c0001579:	c3                   	ret    
c000157a:	8d b6 00 00 00 00    	lea    0x0(%esi),%esi

c0001580 <strtol>:
c0001580:	55                   	push   %ebp
c0001581:	57                   	push   %edi
c0001582:	56                   	push   %esi
c0001583:	53                   	push   %ebx
c0001584:	83 ec 10             	sub    $0x10,%esp
c0001587:	8b 74 24 2c          	mov    0x2c(%esp),%esi
c000158b:	8b 44 24 24          	mov    0x24(%esp),%eax
c000158f:	eb 11                	jmp    c00015a2 <strtol+0x22>
c0001591:	eb 0d                	jmp    c00015a0 <strtol+0x20>
c0001593:	90                   	nop
c0001594:	90                   	nop
c0001595:	90                   	nop
c0001596:	90                   	nop
c0001597:	90                   	nop
c0001598:	90                   	nop
c0001599:	90                   	nop
c000159a:	90                   	nop
c000159b:	90                   	nop
c000159c:	90                   	nop
c000159d:	90                   	nop
c000159e:	90                   	nop
c000159f:	90                   	nop
c00015a0:	89 d8                	mov    %ebx,%eax
c00015a2:	8d 58 01             	lea    0x1(%eax),%ebx
c00015a5:	0f be 4b ff          	movsbl -0x1(%ebx),%ecx
c00015a9:	f6 81 21 80 00 c0 20 	testb  $0x20,-0x3fff7fdf(%ecx)
c00015b0:	75 ee                	jne    c00015a0 <strtol+0x20>
c00015b2:	83 f9 2d             	cmp    $0x2d,%ecx
c00015b5:	0f 84 55 01 00 00    	je     c0001710 <strtol+0x190>
c00015bb:	83 f9 2b             	cmp    $0x2b,%ecx
c00015be:	c7 44 24 08 00 00 00 	movl   $0x0,0x8(%esp)
c00015c5:	00 
c00015c6:	0f 84 94 01 00 00    	je     c0001760 <strtol+0x1e0>
c00015cc:	89 f0                	mov    %esi,%eax
c00015ce:	83 e0 fd             	and    $0xfffffffd,%eax
c00015d1:	f7 c6 ef ff ff ff    	test   $0xffffffef,%esi
c00015d7:	75 09                	jne    c00015e2 <strtol+0x62>
c00015d9:	83 f9 30             	cmp    $0x30,%ecx
c00015dc:	0f 84 8e 01 00 00    	je     c0001770 <strtol+0x1f0>
c00015e2:	85 c0                	test   %eax,%eax
c00015e4:	0f 84 c6 00 00 00    	je     c00016b0 <strtol+0x130>
c00015ea:	89 74 24 04          	mov    %esi,0x4(%esp)
c00015ee:	8b 44 24 08          	mov    0x8(%esp),%eax
c00015f2:	31 d2                	xor    %edx,%edx
c00015f4:	31 ed                	xor    %ebp,%ebp
c00015f6:	05 ff ff ff 7f       	add    $0x7fffffff,%eax
c00015fb:	89 44 24 0c          	mov    %eax,0xc(%esp)
c00015ff:	f7 74 24 04          	divl   0x4(%esp)
c0001603:	89 14 24             	mov    %edx,(%esp)
c0001606:	89 c7                	mov    %eax,%edi
c0001608:	31 d2                	xor    %edx,%edx
c000160a:	eb 3b                	jmp    c0001647 <strtol+0xc7>
c000160c:	8d 74 26 00          	lea    0x0(%esi,%eiz,1),%esi
c0001610:	83 e9 30             	sub    $0x30,%ecx
c0001613:	39 ce                	cmp    %ecx,%esi
c0001615:	7e 52                	jle    c0001669 <strtol+0xe9>
c0001617:	c1 ea 1f             	shr    $0x1f,%edx
c000161a:	84 d2                	test   %dl,%dl
c000161c:	0f 85 be 00 00 00    	jne    c00016e0 <strtol+0x160>
c0001622:	39 fd                	cmp    %edi,%ebp
c0001624:	0f 87 b6 00 00 00    	ja     c00016e0 <strtol+0x160>
c000162a:	39 fd                	cmp    %edi,%ebp
c000162c:	0f 85 be 00 00 00    	jne    c00016f0 <strtol+0x170>
c0001632:	3b 0c 24             	cmp    (%esp),%ecx
c0001635:	ba ff ff ff ff       	mov    $0xffffffff,%edx
c000163a:	0f 8e b0 00 00 00    	jle    c00016f0 <strtol+0x170>
c0001640:	83 c3 01             	add    $0x1,%ebx
c0001643:	0f be 4b ff          	movsbl -0x1(%ebx),%ecx
c0001647:	0f b6 81 21 80 00 c0 	movzbl -0x3fff7fdf(%ecx),%eax
c000164e:	a8 04                	test   $0x4,%al
c0001650:	75 be                	jne    c0001610 <strtol+0x90>
c0001652:	a8 03                	test   $0x3,%al
c0001654:	74 13                	je     c0001669 <strtol+0xe9>
c0001656:	83 e0 01             	and    $0x1,%eax
c0001659:	3c 01                	cmp    $0x1,%al
c000165b:	19 c0                	sbb    %eax,%eax
c000165d:	83 e0 20             	and    $0x20,%eax
c0001660:	83 c0 37             	add    $0x37,%eax
c0001663:	29 c1                	sub    %eax,%ecx
c0001665:	39 ce                	cmp    %ecx,%esi
c0001667:	7f ae                	jg     c0001617 <strtol+0x97>
c0001669:	83 fa ff             	cmp    $0xffffffff,%edx
c000166c:	0f 84 be 00 00 00    	je     c0001730 <strtol+0x1b0>
c0001672:	8b 4c 24 08          	mov    0x8(%esp),%ecx
c0001676:	8b 74 24 28          	mov    0x28(%esp),%esi
c000167a:	89 e8                	mov    %ebp,%eax
c000167c:	f7 d8                	neg    %eax
c000167e:	85 c9                	test   %ecx,%ecx
c0001680:	0f 45 e8             	cmovne %eax,%ebp
c0001683:	85 f6                	test   %esi,%esi
c0001685:	74 12                	je     c0001699 <strtol+0x119>
c0001687:	85 d2                	test   %edx,%edx
c0001689:	0f 85 c1 00 00 00    	jne    c0001750 <strtol+0x1d0>
c000168f:	8b 44 24 28          	mov    0x28(%esp),%eax
c0001693:	8b 7c 24 24          	mov    0x24(%esp),%edi
c0001697:	89 38                	mov    %edi,(%eax)
c0001699:	83 c4 10             	add    $0x10,%esp
c000169c:	89 e8                	mov    %ebp,%eax
c000169e:	5b                   	pop    %ebx
c000169f:	5e                   	pop    %esi
c00016a0:	5f                   	pop    %edi
c00016a1:	5d                   	pop    %ebp
c00016a2:	c3                   	ret    
c00016a3:	8d b6 00 00 00 00    	lea    0x0(%esi),%esi
c00016a9:	8d bc 27 00 00 00 00 	lea    0x0(%edi,%eiz,1),%edi
c00016b0:	83 f9 30             	cmp    $0x30,%ecx
c00016b3:	0f 84 df 00 00 00    	je     c0001798 <strtol+0x218>
c00016b9:	85 f6                	test   %esi,%esi
c00016bb:	0f 85 29 ff ff ff    	jne    c00015ea <strtol+0x6a>
c00016c1:	c7 44 24 04 0a 00 00 	movl   $0xa,0x4(%esp)
c00016c8:	00 
c00016c9:	be 0a 00 00 00       	mov    $0xa,%esi
c00016ce:	e9 1b ff ff ff       	jmp    c00015ee <strtol+0x6e>
c00016d3:	8d b6 00 00 00 00    	lea    0x0(%esi),%esi
c00016d9:	8d bc 27 00 00 00 00 	lea    0x0(%edi,%eiz,1),%edi
c00016e0:	ba ff ff ff ff       	mov    $0xffffffff,%edx
c00016e5:	e9 56 ff ff ff       	jmp    c0001640 <strtol+0xc0>
c00016ea:	8d b6 00 00 00 00    	lea    0x0(%esi),%esi
c00016f0:	0f af 6c 24 04       	imul   0x4(%esp),%ebp
c00016f5:	ba 01 00 00 00       	mov    $0x1,%edx
c00016fa:	01 cd                	add    %ecx,%ebp
c00016fc:	e9 3f ff ff ff       	jmp    c0001640 <strtol+0xc0>
c0001701:	eb 0d                	jmp    c0001710 <strtol+0x190>
c0001703:	90                   	nop
c0001704:	90                   	nop
c0001705:	90                   	nop
c0001706:	90                   	nop
c0001707:	90                   	nop
c0001708:	90                   	nop
c0001709:	90                   	nop
c000170a:	90                   	nop
c000170b:	90                   	nop
c000170c:	90                   	nop
c000170d:	90                   	nop
c000170e:	90                   	nop
c000170f:	90                   	nop
c0001710:	0f be 0b             	movsbl (%ebx),%ecx
c0001713:	c7 44 24 08 01 00 00 	movl   $0x1,0x8(%esp)
c000171a:	00 
c000171b:	8d 58 02             	lea    0x2(%eax),%ebx
c000171e:	e9 a9 fe ff ff       	jmp    c00015cc <strtol+0x4c>
c0001723:	8d b6 00 00 00 00    	lea    0x0(%esi),%esi
c0001729:	8d bc 27 00 00 00 00 	lea    0x0(%edi,%eiz,1),%edi
c0001730:	8b 44 24 28          	mov    0x28(%esp),%eax
c0001734:	85 c0                	test   %eax,%eax
c0001736:	0f 84 99 00 00 00    	je     c00017d5 <strtol+0x255>
c000173c:	8d 43 ff             	lea    -0x1(%ebx),%eax
c000173f:	8b 6c 24 0c          	mov    0xc(%esp),%ebp
c0001743:	89 44 24 24          	mov    %eax,0x24(%esp)
c0001747:	e9 43 ff ff ff       	jmp    c000168f <strtol+0x10f>
c000174c:	8d 74 26 00          	lea    0x0(%esi,%eiz,1),%esi
c0001750:	89 6c 24 0c          	mov    %ebp,0xc(%esp)
c0001754:	eb e6                	jmp    c000173c <strtol+0x1bc>
c0001756:	8d 76 00             	lea    0x0(%esi),%esi
c0001759:	8d bc 27 00 00 00 00 	lea    0x0(%edi,%eiz,1),%edi
c0001760:	0f be 0b             	movsbl (%ebx),%ecx
c0001763:	8d 58 02             	lea    0x2(%eax),%ebx
c0001766:	e9 61 fe ff ff       	jmp    c00015cc <strtol+0x4c>
c000176b:	90                   	nop
c000176c:	8d 74 26 00          	lea    0x0(%esi,%eiz,1),%esi
c0001770:	0f b6 13             	movzbl (%ebx),%edx
c0001773:	83 e2 df             	and    $0xffffffdf,%edx
c0001776:	80 fa 58             	cmp    $0x58,%dl
c0001779:	0f 85 63 fe ff ff    	jne    c00015e2 <strtol+0x62>
c000177f:	0f be 4b 01          	movsbl 0x1(%ebx),%ecx
c0001783:	c7 44 24 04 10 00 00 	movl   $0x10,0x4(%esp)
c000178a:	00 
c000178b:	83 c3 02             	add    $0x2,%ebx
c000178e:	be 10 00 00 00       	mov    $0x10,%esi
c0001793:	e9 56 fe ff ff       	jmp    c00015ee <strtol+0x6e>
c0001798:	0f b6 03             	movzbl (%ebx),%eax
c000179b:	83 e0 df             	and    $0xffffffdf,%eax
c000179e:	3c 42                	cmp    $0x42,%al
c00017a0:	75 19                	jne    c00017bb <strtol+0x23b>
c00017a2:	0f be 4b 01          	movsbl 0x1(%ebx),%ecx
c00017a6:	c7 44 24 04 02 00 00 	movl   $0x2,0x4(%esp)
c00017ad:	00 
c00017ae:	83 c3 02             	add    $0x2,%ebx
c00017b1:	be 02 00 00 00       	mov    $0x2,%esi
c00017b6:	e9 33 fe ff ff       	jmp    c00015ee <strtol+0x6e>
c00017bb:	85 f6                	test   %esi,%esi
c00017bd:	0f 85 27 fe ff ff    	jne    c00015ea <strtol+0x6a>
c00017c3:	c7 44 24 04 08 00 00 	movl   $0x8,0x4(%esp)
c00017ca:	00 
c00017cb:	be 08 00 00 00       	mov    $0x8,%esi
c00017d0:	e9 19 fe ff ff       	jmp    c00015ee <strtol+0x6e>
c00017d5:	8b 6c 24 0c          	mov    0xc(%esp),%ebp
c00017d9:	e9 bb fe ff ff       	jmp    c0001699 <strtol+0x119>
c00017de:	66 90                	xchg   %ax,%ax

c00017e0 <strtoul>:
c00017e0:	55                   	push   %ebp
c00017e1:	57                   	push   %edi
c00017e2:	56                   	push   %esi
c00017e3:	53                   	push   %ebx
c00017e4:	83 ec 0c             	sub    $0xc,%esp
c00017e7:	8b 74 24 28          	mov    0x28(%esp),%esi
c00017eb:	8b 44 24 20          	mov    0x20(%esp),%eax
c00017ef:	eb 11                	jmp    c0001802 <strtoul+0x22>
c00017f1:	eb 0d                	jmp    c0001800 <strtoul+0x20>
c00017f3:	90                   	nop
c00017f4:	90                   	nop
c00017f5:	90                   	nop
c00017f6:	90                   	nop
c00017f7:	90                   	nop
c00017f8:	90                   	nop
c00017f9:	90                   	nop
c00017fa:	90                   	nop
c00017fb:	90                   	nop
c00017fc:	90                   	nop
c00017fd:	90                   	nop
c00017fe:	90                   	nop
c00017ff:	90                   	nop
c0001800:	89 d8                	mov    %ebx,%eax
c0001802:	8d 58 01             	lea    0x1(%eax),%ebx
c0001805:	0f be 4b ff          	movsbl -0x1(%ebx),%ecx
c0001809:	f6 81 21 80 00 c0 20 	testb  $0x20,-0x3fff7fdf(%ecx)
c0001810:	75 ee                	jne    c0001800 <strtoul+0x20>
c0001812:	83 f9 2d             	cmp    $0x2d,%ecx
c0001815:	0f 84 75 01 00 00    	je     c0001990 <strtoul+0x1b0>
c000181b:	83 f9 2b             	cmp    $0x2b,%ecx
c000181e:	c7 44 24 08 00 00 00 	movl   $0x0,0x8(%esp)
c0001825:	00 
c0001826:	0f 84 84 01 00 00    	je     c00019b0 <strtoul+0x1d0>
c000182c:	89 f0                	mov    %esi,%eax
c000182e:	83 e0 fd             	and    $0xfffffffd,%eax
c0001831:	f7 c6 ef ff ff ff    	test   $0xffffffef,%esi
c0001837:	75 09                	jne    c0001842 <strtoul+0x62>
c0001839:	83 f9 30             	cmp    $0x30,%ecx
c000183c:	0f 84 7e 01 00 00    	je     c00019c0 <strtoul+0x1e0>
c0001842:	85 c0                	test   %eax,%eax
c0001844:	0f 84 c6 00 00 00    	je     c0001910 <strtoul+0x130>
c000184a:	b8 ff ff ff ff       	mov    $0xffffffff,%eax
c000184f:	31 d2                	xor    %edx,%edx
c0001851:	89 74 24 04          	mov    %esi,0x4(%esp)
c0001855:	f7 f6                	div    %esi
c0001857:	89 14 24             	mov    %edx,(%esp)
c000185a:	89 c7                	mov    %eax,%edi
c000185c:	31 d2                	xor    %edx,%edx
c000185e:	31 ed                	xor    %ebp,%ebp
c0001860:	eb 45                	jmp    c00018a7 <strtoul+0xc7>
c0001862:	8d b4 26 00 00 00 00 	lea    0x0(%esi,%eiz,1),%esi
c0001869:	8d bc 27 00 00 00 00 	lea    0x0(%edi,%eiz,1),%edi
c0001870:	83 e9 30             	sub    $0x30,%ecx
c0001873:	39 ce                	cmp    %ecx,%esi
c0001875:	7e 52                	jle    c00018c9 <strtoul+0xe9>
c0001877:	c1 ea 1f             	shr    $0x1f,%edx
c000187a:	84 d2                	test   %dl,%dl
c000187c:	0f 85 be 00 00 00    	jne    c0001940 <strtoul+0x160>
c0001882:	39 fd                	cmp    %edi,%ebp
c0001884:	0f 87 b6 00 00 00    	ja     c0001940 <strtoul+0x160>
c000188a:	39 fd                	cmp    %edi,%ebp
c000188c:	0f 85 be 00 00 00    	jne    c0001950 <strtoul+0x170>
c0001892:	3b 0c 24             	cmp    (%esp),%ecx
c0001895:	ba ff ff ff ff       	mov    $0xffffffff,%edx
c000189a:	0f 8e b0 00 00 00    	jle    c0001950 <strtoul+0x170>
c00018a0:	83 c3 01             	add    $0x1,%ebx
c00018a3:	0f be 4b ff          	movsbl -0x1(%ebx),%ecx
c00018a7:	0f b6 81 21 80 00 c0 	movzbl -0x3fff7fdf(%ecx),%eax
c00018ae:	a8 04                	test   $0x4,%al
c00018b0:	75 be                	jne    c0001870 <strtoul+0x90>
c00018b2:	a8 03                	test   $0x3,%al
c00018b4:	74 13                	je     c00018c9 <strtoul+0xe9>
c00018b6:	83 e0 01             	and    $0x1,%eax
c00018b9:	3c 01                	cmp    $0x1,%al
c00018bb:	19 c0                	sbb    %eax,%eax
c00018bd:	83 e0 20             	and    $0x20,%eax
c00018c0:	83 c0 37             	add    $0x37,%eax
c00018c3:	29 c1                	sub    %eax,%ecx
c00018c5:	39 ce                	cmp    %ecx,%esi
c00018c7:	7f ae                	jg     c0001877 <strtoul+0x97>
c00018c9:	85 d2                	test   %edx,%edx
c00018cb:	0f 88 9f 00 00 00    	js     c0001970 <strtoul+0x190>
c00018d1:	8b 4c 24 08          	mov    0x8(%esp),%ecx
c00018d5:	8b 74 24 24          	mov    0x24(%esp),%esi
c00018d9:	89 e8                	mov    %ebp,%eax
c00018db:	f7 d8                	neg    %eax
c00018dd:	85 c9                	test   %ecx,%ecx
c00018df:	0f 45 e8             	cmovne %eax,%ebp
c00018e2:	85 f6                	test   %esi,%esi
c00018e4:	74 12                	je     c00018f8 <strtoul+0x118>
c00018e6:	85 d2                	test   %edx,%edx
c00018e8:	0f 85 93 00 00 00    	jne    c0001981 <strtoul+0x1a1>
c00018ee:	8b 44 24 24          	mov    0x24(%esp),%eax
c00018f2:	8b 7c 24 20          	mov    0x20(%esp),%edi
c00018f6:	89 38                	mov    %edi,(%eax)
c00018f8:	83 c4 0c             	add    $0xc,%esp
c00018fb:	89 e8                	mov    %ebp,%eax
c00018fd:	5b                   	pop    %ebx
c00018fe:	5e                   	pop    %esi
c00018ff:	5f                   	pop    %edi
c0001900:	5d                   	pop    %ebp
c0001901:	c3                   	ret    
c0001902:	8d b4 26 00 00 00 00 	lea    0x0(%esi,%eiz,1),%esi
c0001909:	8d bc 27 00 00 00 00 	lea    0x0(%edi,%eiz,1),%edi
c0001910:	83 f9 30             	cmp    $0x30,%ecx
c0001913:	0f 84 db 00 00 00    	je     c00019f4 <strtoul+0x214>
c0001919:	85 f6                	test   %esi,%esi
c000191b:	0f 85 29 ff ff ff    	jne    c000184a <strtoul+0x6a>
c0001921:	c7 04 24 05 00 00 00 	movl   $0x5,(%esp)
c0001928:	bf 99 99 99 19       	mov    $0x19999999,%edi
c000192d:	c7 44 24 04 0a 00 00 	movl   $0xa,0x4(%esp)
c0001934:	00 
c0001935:	be 0a 00 00 00       	mov    $0xa,%esi
c000193a:	e9 1d ff ff ff       	jmp    c000185c <strtoul+0x7c>
c000193f:	90                   	nop
c0001940:	ba ff ff ff ff       	mov    $0xffffffff,%edx
c0001945:	e9 56 ff ff ff       	jmp    c00018a0 <strtoul+0xc0>
c000194a:	8d b6 00 00 00 00    	lea    0x0(%esi),%esi
c0001950:	0f af 6c 24 04       	imul   0x4(%esp),%ebp
c0001955:	ba 01 00 00 00       	mov    $0x1,%edx
c000195a:	01 cd                	add    %ecx,%ebp
c000195c:	e9 3f ff ff ff       	jmp    c00018a0 <strtoul+0xc0>
c0001961:	eb 0d                	jmp    c0001970 <strtoul+0x190>
c0001963:	90                   	nop
c0001964:	90                   	nop
c0001965:	90                   	nop
c0001966:	90                   	nop
c0001967:	90                   	nop
c0001968:	90                   	nop
c0001969:	90                   	nop
c000196a:	90                   	nop
c000196b:	90                   	nop
c000196c:	90                   	nop
c000196d:	90                   	nop
c000196e:	90                   	nop
c000196f:	90                   	nop
c0001970:	8b 44 24 24          	mov    0x24(%esp),%eax
c0001974:	bd ff ff ff ff       	mov    $0xffffffff,%ebp
c0001979:	85 c0                	test   %eax,%eax
c000197b:	0f 84 77 ff ff ff    	je     c00018f8 <strtoul+0x118>
c0001981:	8d 43 ff             	lea    -0x1(%ebx),%eax
c0001984:	89 44 24 20          	mov    %eax,0x20(%esp)
c0001988:	e9 61 ff ff ff       	jmp    c00018ee <strtoul+0x10e>
c000198d:	8d 76 00             	lea    0x0(%esi),%esi
c0001990:	0f be 0b             	movsbl (%ebx),%ecx
c0001993:	c7 44 24 08 01 00 00 	movl   $0x1,0x8(%esp)
c000199a:	00 
c000199b:	8d 58 02             	lea    0x2(%eax),%ebx
c000199e:	e9 89 fe ff ff       	jmp    c000182c <strtoul+0x4c>
c00019a3:	8d b6 00 00 00 00    	lea    0x0(%esi),%esi
c00019a9:	8d bc 27 00 00 00 00 	lea    0x0(%edi,%eiz,1),%edi
c00019b0:	0f be 0b             	movsbl (%ebx),%ecx
c00019b3:	8d 58 02             	lea    0x2(%eax),%ebx
c00019b6:	e9 71 fe ff ff       	jmp    c000182c <strtoul+0x4c>
c00019bb:	90                   	nop
c00019bc:	8d 74 26 00          	lea    0x0(%esi,%eiz,1),%esi
c00019c0:	0f b6 13             	movzbl (%ebx),%edx
c00019c3:	83 e2 df             	and    $0xffffffdf,%edx
c00019c6:	80 fa 58             	cmp    $0x58,%dl
c00019c9:	0f 85 73 fe ff ff    	jne    c0001842 <strtoul+0x62>
c00019cf:	0f be 4b 01          	movsbl 0x1(%ebx),%ecx
c00019d3:	c7 04 24 0f 00 00 00 	movl   $0xf,(%esp)
c00019da:	83 c3 02             	add    $0x2,%ebx
c00019dd:	bf ff ff ff 0f       	mov    $0xfffffff,%edi
c00019e2:	c7 44 24 04 10 00 00 	movl   $0x10,0x4(%esp)
c00019e9:	00 
c00019ea:	be 10 00 00 00       	mov    $0x10,%esi
c00019ef:	e9 68 fe ff ff       	jmp    c000185c <strtoul+0x7c>
c00019f4:	0f b6 03             	movzbl (%ebx),%eax
c00019f7:	83 e0 df             	and    $0xffffffdf,%eax
c00019fa:	3c 42                	cmp    $0x42,%al
c00019fc:	75 25                	jne    c0001a23 <strtoul+0x243>
c00019fe:	0f be 4b 01          	movsbl 0x1(%ebx),%ecx
c0001a02:	c7 04 24 01 00 00 00 	movl   $0x1,(%esp)
c0001a09:	83 c3 02             	add    $0x2,%ebx
c0001a0c:	bf ff ff ff 7f       	mov    $0x7fffffff,%edi
c0001a11:	c7 44 24 04 02 00 00 	movl   $0x2,0x4(%esp)
c0001a18:	00 
c0001a19:	be 02 00 00 00       	mov    $0x2,%esi
c0001a1e:	e9 39 fe ff ff       	jmp    c000185c <strtoul+0x7c>
c0001a23:	85 f6                	test   %esi,%esi
c0001a25:	0f 85 1f fe ff ff    	jne    c000184a <strtoul+0x6a>
c0001a2b:	c7 04 24 07 00 00 00 	movl   $0x7,(%esp)
c0001a32:	bf ff ff ff 1f       	mov    $0x1fffffff,%edi
c0001a37:	c7 44 24 04 08 00 00 	movl   $0x8,0x4(%esp)
c0001a3e:	00 
c0001a3f:	be 08 00 00 00       	mov    $0x8,%esi
c0001a44:	e9 13 fe ff ff       	jmp    c000185c <strtoul+0x7c>
c0001a49:	8d b4 26 00 00 00 00 	lea    0x0(%esi,%eiz,1),%esi

c0001a50 <atoi>:
c0001a50:	6a 0a                	push   $0xa
c0001a52:	6a 00                	push   $0x0
c0001a54:	ff 74 24 0c          	pushl  0xc(%esp)
c0001a58:	e8 23 fb ff ff       	call   c0001580 <strtol>
c0001a5d:	83 c4 0c             	add    $0xc,%esp
c0001a60:	c3                   	ret    
c0001a61:	66 90                	xchg   %ax,%ax
c0001a63:	66 90                	xchg   %ax,%ax
c0001a65:	66 90                	xchg   %ax,%ax
c0001a67:	66 90                	xchg   %ax,%ax
c0001a69:	66 90                	xchg   %ax,%ax
c0001a6b:	66 90                	xchg   %ax,%ax
c0001a6d:	66 90                	xchg   %ax,%ax
c0001a6f:	90                   	nop

c0001a70 <i86_pic_send_command>:
c0001a70:	80 7c 24 08 01       	cmpb   $0x1,0x8(%esp)
c0001a75:	8b 44 24 04          	mov    0x4(%esp),%eax
c0001a79:	76 05                	jbe    c0001a80 <i86_pic_send_command+0x10>
c0001a7b:	f3 c3                	repz ret 
c0001a7d:	8d 76 00             	lea    0x0(%esi),%esi
c0001a80:	b9 a0 00 00 00       	mov    $0xa0,%ecx
c0001a85:	ba 20 00 00 00       	mov    $0x20,%edx
c0001a8a:	0f b6 c0             	movzbl %al,%eax
c0001a8d:	0f 44 d1             	cmove  %ecx,%edx
c0001a90:	89 44 24 08          	mov    %eax,0x8(%esp)
c0001a94:	89 54 24 04          	mov    %edx,0x4(%esp)
c0001a98:	e9 23 f7 ff ff       	jmp    c00011c0 <outportb>
c0001a9d:	8d 76 00             	lea    0x0(%esi),%esi

c0001aa0 <i86_pic_send_data>:
c0001aa0:	80 7c 24 08 01       	cmpb   $0x1,0x8(%esp)
c0001aa5:	8b 44 24 04          	mov    0x4(%esp),%eax
c0001aa9:	76 05                	jbe    c0001ab0 <i86_pic_send_data+0x10>
c0001aab:	f3 c3                	repz ret 
c0001aad:	8d 76 00             	lea    0x0(%esi),%esi
c0001ab0:	b9 a1 00 00 00       	mov    $0xa1,%ecx
c0001ab5:	ba 21 00 00 00       	mov    $0x21,%edx
c0001aba:	0f b6 c0             	movzbl %al,%eax
c0001abd:	0f 44 d1             	cmove  %ecx,%edx
c0001ac0:	89 44 24 08          	mov    %eax,0x8(%esp)
c0001ac4:	89 54 24 04          	mov    %edx,0x4(%esp)
c0001ac8:	e9 f3 f6 ff ff       	jmp    c00011c0 <outportb>
c0001acd:	8d 76 00             	lea    0x0(%esi),%esi

c0001ad0 <i86_pic_read_data>:
c0001ad0:	80 7c 24 04 01       	cmpb   $0x1,0x4(%esp)
c0001ad5:	76 09                	jbe    c0001ae0 <i86_pic_read_data+0x10>
c0001ad7:	31 c0                	xor    %eax,%eax
c0001ad9:	c3                   	ret    
c0001ada:	8d b6 00 00 00 00    	lea    0x0(%esi),%esi
c0001ae0:	ba a1 00 00 00       	mov    $0xa1,%edx
c0001ae5:	b8 21 00 00 00       	mov    $0x21,%eax
c0001aea:	0f 44 c2             	cmove  %edx,%eax
c0001aed:	89 44 24 04          	mov    %eax,0x4(%esp)
c0001af1:	e9 aa f6 ff ff       	jmp    c00011a0 <inportb>
c0001af6:	8d 76 00             	lea    0x0(%esi),%esi
c0001af9:	8d bc 27 00 00 00 00 	lea    0x0(%edi,%eiz,1),%edi

c0001b00 <i86_pic_initialize>:
c0001b00:	56                   	push   %esi
c0001b01:	53                   	push   %ebx
c0001b02:	83 ec 04             	sub    $0x4,%esp
c0001b05:	8b 74 24 10          	mov    0x10(%esp),%esi
c0001b09:	8b 5c 24 14          	mov    0x14(%esp),%ebx
c0001b0d:	e8 de f6 ff ff       	call   c00011f0 <disable>
c0001b12:	83 ec 08             	sub    $0x8,%esp
c0001b15:	6a 11                	push   $0x11
c0001b17:	6a 20                	push   $0x20
c0001b19:	0f b6 db             	movzbl %bl,%ebx
c0001b1c:	e8 9f f6 ff ff       	call   c00011c0 <outportb>
c0001b21:	58                   	pop    %eax
c0001b22:	5a                   	pop    %edx
c0001b23:	6a 11                	push   $0x11
c0001b25:	68 a0 00 00 00       	push   $0xa0
c0001b2a:	e8 91 f6 ff ff       	call   c00011c0 <outportb>
c0001b2f:	59                   	pop    %ecx
c0001b30:	58                   	pop    %eax
c0001b31:	89 f0                	mov    %esi,%eax
c0001b33:	0f b6 f0             	movzbl %al,%esi
c0001b36:	56                   	push   %esi
c0001b37:	6a 21                	push   $0x21
c0001b39:	e8 82 f6 ff ff       	call   c00011c0 <outportb>
c0001b3e:	58                   	pop    %eax
c0001b3f:	5a                   	pop    %edx
c0001b40:	53                   	push   %ebx
c0001b41:	68 a1 00 00 00       	push   $0xa1
c0001b46:	e8 75 f6 ff ff       	call   c00011c0 <outportb>
c0001b4b:	59                   	pop    %ecx
c0001b4c:	5b                   	pop    %ebx
c0001b4d:	6a 04                	push   $0x4
c0001b4f:	6a 21                	push   $0x21
c0001b51:	e8 6a f6 ff ff       	call   c00011c0 <outportb>
c0001b56:	5e                   	pop    %esi
c0001b57:	58                   	pop    %eax
c0001b58:	6a 02                	push   $0x2
c0001b5a:	68 a1 00 00 00       	push   $0xa1
c0001b5f:	e8 5c f6 ff ff       	call   c00011c0 <outportb>
c0001b64:	58                   	pop    %eax
c0001b65:	5a                   	pop    %edx
c0001b66:	6a 11                	push   $0x11
c0001b68:	6a 21                	push   $0x21
c0001b6a:	e8 51 f6 ff ff       	call   c00011c0 <outportb>
c0001b6f:	c7 44 24 24 11 00 00 	movl   $0x11,0x24(%esp)
c0001b76:	00 
c0001b77:	c7 44 24 20 a1 00 00 	movl   $0xa1,0x20(%esp)
c0001b7e:	00 
c0001b7f:	83 c4 14             	add    $0x14,%esp
c0001b82:	5b                   	pop    %ebx
c0001b83:	5e                   	pop    %esi
c0001b84:	e9 37 f6 ff ff       	jmp    c00011c0 <outportb>
c0001b89:	66 90                	xchg   %ax,%ax
c0001b8b:	66 90                	xchg   %ax,%ax
c0001b8d:	66 90                	xchg   %ax,%ax
c0001b8f:	90                   	nop

c0001b90 <i86_pit_irq>:
c0001b90:	83 ec 18             	sub    $0x18,%esp
c0001b93:	a1 a4 88 00 c0       	mov    0xc00088a4,%eax
c0001b98:	6a 00                	push   $0x0
c0001b9a:	83 c0 01             	add    $0x1,%eax
c0001b9d:	a3 a4 88 00 c0       	mov    %eax,0xc00088a4
c0001ba2:	e8 89 f5 ff ff       	call   c0001130 <interruptdone>
c0001ba7:	83 c4 1c             	add    $0x1c,%esp
c0001baa:	c3                   	ret    
c0001bab:	90                   	nop
c0001bac:	8d 74 26 00          	lea    0x0(%esi,%eiz,1),%esi

c0001bb0 <i86_pit_set_tick_count>:
c0001bb0:	8b 54 24 04          	mov    0x4(%esp),%edx
c0001bb4:	a1 a4 88 00 c0       	mov    0xc00088a4,%eax
c0001bb9:	89 15 a4 88 00 c0    	mov    %edx,0xc00088a4
c0001bbf:	c3                   	ret    

c0001bc0 <i86_pit_get_tick_count>:
c0001bc0:	a1 a4 88 00 c0       	mov    0xc00088a4,%eax
c0001bc5:	c3                   	ret    
c0001bc6:	8d 76 00             	lea    0x0(%esi),%esi
c0001bc9:	8d bc 27 00 00 00 00 	lea    0x0(%edi,%eiz,1),%edi

c0001bd0 <i86_pit_send_command>:
c0001bd0:	83 ec 14             	sub    $0x14,%esp
c0001bd3:	0f b6 44 24 18       	movzbl 0x18(%esp),%eax
c0001bd8:	50                   	push   %eax
c0001bd9:	6a 43                	push   $0x43
c0001bdb:	e8 e0 f5 ff ff       	call   c00011c0 <outportb>
c0001be0:	83 c4 1c             	add    $0x1c,%esp
c0001be3:	c3                   	ret    
c0001be4:	8d b6 00 00 00 00    	lea    0x0(%esi),%esi
c0001bea:	8d bf 00 00 00 00    	lea    0x0(%edi),%edi

c0001bf0 <i86_pit_send_data>:
c0001bf0:	8b 4c 24 08          	mov    0x8(%esp),%ecx
c0001bf4:	8b 44 24 04          	mov    0x4(%esp),%eax
c0001bf8:	ba 40 00 00 00       	mov    $0x40,%edx
c0001bfd:	84 c9                	test   %cl,%cl
c0001bff:	74 0b                	je     c0001c0c <i86_pit_send_data+0x1c>
c0001c01:	31 d2                	xor    %edx,%edx
c0001c03:	80 f9 40             	cmp    $0x40,%cl
c0001c06:	0f 95 c2             	setne  %dl
c0001c09:	83 c2 41             	add    $0x41,%edx
c0001c0c:	0f b6 c0             	movzbl %al,%eax
c0001c0f:	89 54 24 04          	mov    %edx,0x4(%esp)
c0001c13:	89 44 24 08          	mov    %eax,0x8(%esp)
c0001c17:	e9 a4 f5 ff ff       	jmp    c00011c0 <outportb>
c0001c1c:	8d 74 26 00          	lea    0x0(%esi,%eiz,1),%esi

c0001c20 <i86_pit_read_data>:
c0001c20:	8b 54 24 04          	mov    0x4(%esp),%edx
c0001c24:	b8 40 00 00 00       	mov    $0x40,%eax
c0001c29:	66 85 d2             	test   %dx,%dx
c0001c2c:	74 0c                	je     c0001c3a <i86_pit_read_data+0x1a>
c0001c2e:	31 c0                	xor    %eax,%eax
c0001c30:	66 83 fa 40          	cmp    $0x40,%dx
c0001c34:	0f 95 c0             	setne  %al
c0001c37:	83 c0 41             	add    $0x41,%eax
c0001c3a:	89 44 24 04          	mov    %eax,0x4(%esp)
c0001c3e:	e9 5d f5 ff ff       	jmp    c00011a0 <inportb>
c0001c43:	8d b6 00 00 00 00    	lea    0x0(%esi),%esi
c0001c49:	8d bc 27 00 00 00 00 	lea    0x0(%edi,%eiz,1),%edi

c0001c50 <i86_pit_start_counter>:
c0001c50:	57                   	push   %edi
c0001c51:	56                   	push   %esi
c0001c52:	53                   	push   %ebx
c0001c53:	8b 7c 24 10          	mov    0x10(%esp),%edi
c0001c57:	8b 74 24 14          	mov    0x14(%esp),%esi
c0001c5b:	8b 4c 24 18          	mov    0x18(%esp),%ecx
c0001c5f:	85 ff                	test   %edi,%edi
c0001c61:	74 4d                	je     c0001cb0 <i86_pit_start_counter+0x60>
c0001c63:	b8 dd 34 00 00       	mov    $0x34dd,%eax
c0001c68:	31 d2                	xor    %edx,%edx
c0001c6a:	83 c9 30             	or     $0x30,%ecx
c0001c6d:	66 f7 f7             	div    %di
c0001c70:	83 e1 3f             	and    $0x3f,%ecx
c0001c73:	83 ec 08             	sub    $0x8,%esp
c0001c76:	09 f1                	or     %esi,%ecx
c0001c78:	0f b6 c9             	movzbl %cl,%ecx
c0001c7b:	51                   	push   %ecx
c0001c7c:	6a 43                	push   $0x43
c0001c7e:	89 c3                	mov    %eax,%ebx
c0001c80:	e8 3b f5 ff ff       	call   c00011c0 <outportb>
c0001c85:	58                   	pop    %eax
c0001c86:	5a                   	pop    %edx
c0001c87:	0f b6 c3             	movzbl %bl,%eax
c0001c8a:	66 c1 eb 08          	shr    $0x8,%bx
c0001c8e:	50                   	push   %eax
c0001c8f:	6a 40                	push   $0x40
c0001c91:	0f b7 db             	movzwl %bx,%ebx
c0001c94:	e8 27 f5 ff ff       	call   c00011c0 <outportb>
c0001c99:	59                   	pop    %ecx
c0001c9a:	5e                   	pop    %esi
c0001c9b:	53                   	push   %ebx
c0001c9c:	6a 40                	push   $0x40
c0001c9e:	e8 1d f5 ff ff       	call   c00011c0 <outportb>
c0001ca3:	c7 05 a4 88 00 c0 00 	movl   $0x0,0xc00088a4
c0001caa:	00 00 00 
c0001cad:	83 c4 10             	add    $0x10,%esp
c0001cb0:	5b                   	pop    %ebx
c0001cb1:	5e                   	pop    %esi
c0001cb2:	5f                   	pop    %edi
c0001cb3:	c3                   	ret    
c0001cb4:	8d b6 00 00 00 00    	lea    0x0(%esi),%esi
c0001cba:	8d bf 00 00 00 00    	lea    0x0(%edi),%edi

c0001cc0 <i86_pit_initialize>:
c0001cc0:	83 ec 14             	sub    $0x14,%esp
c0001cc3:	68 3e 0e 00 c0       	push   $0xc0000e3e
c0001cc8:	6a 20                	push   $0x20
c0001cca:	e8 31 f5 ff ff       	call   c0001200 <setvect>
c0001ccf:	c6 05 a0 88 00 c0 01 	movb   $0x1,0xc00088a0
c0001cd6:	83 c4 1c             	add    $0x1c,%esp
c0001cd9:	c3                   	ret    
c0001cda:	8d b6 00 00 00 00    	lea    0x0(%esi),%esi

c0001ce0 <i86_pit_is_initialized>:
c0001ce0:	0f b6 05 a0 88 00 c0 	movzbl 0xc00088a0,%eax
c0001ce7:	c3                   	ret    
c0001ce8:	66 90                	xchg   %ax,%ax
c0001cea:	66 90                	xchg   %ax,%ax
c0001cec:	66 90                	xchg   %ax,%ax
c0001cee:	66 90                	xchg   %ax,%ax

c0001cf0 <divide_by_zero_fault>:
c0001cf0:	83 ec 18             	sub    $0x18,%esp
c0001cf3:	68 8b 67 00 c0       	push   $0xc000678b
c0001cf8:	e8 33 02 00 00       	call   c0001f30 <kernel_panic>
c0001cfd:	83 c4 10             	add    $0x10,%esp
c0001d00:	eb fe                	jmp    c0001d00 <divide_by_zero_fault+0x10>
c0001d02:	8d b4 26 00 00 00 00 	lea    0x0(%esi,%eiz,1),%esi
c0001d09:	8d bc 27 00 00 00 00 	lea    0x0(%edi,%eiz,1),%edi

c0001d10 <single_step_trap>:
c0001d10:	83 ec 18             	sub    $0x18,%esp
c0001d13:	68 97 67 00 c0       	push   $0xc0006797
c0001d18:	e8 13 02 00 00       	call   c0001f30 <kernel_panic>
c0001d1d:	83 c4 10             	add    $0x10,%esp
c0001d20:	eb fe                	jmp    c0001d20 <single_step_trap+0x10>
c0001d22:	8d b4 26 00 00 00 00 	lea    0x0(%esi,%eiz,1),%esi
c0001d29:	8d bc 27 00 00 00 00 	lea    0x0(%edi,%eiz,1),%edi

c0001d30 <nmi_trap>:
c0001d30:	83 ec 18             	sub    $0x18,%esp
c0001d33:	68 a3 67 00 c0       	push   $0xc00067a3
c0001d38:	e8 f3 01 00 00       	call   c0001f30 <kernel_panic>
c0001d3d:	83 c4 10             	add    $0x10,%esp
c0001d40:	eb fe                	jmp    c0001d40 <nmi_trap+0x10>
c0001d42:	8d b4 26 00 00 00 00 	lea    0x0(%esi,%eiz,1),%esi
c0001d49:	8d bc 27 00 00 00 00 	lea    0x0(%edi,%eiz,1),%edi

c0001d50 <breakpoint_trap>:
c0001d50:	83 ec 18             	sub    $0x18,%esp
c0001d53:	68 ac 67 00 c0       	push   $0xc00067ac
c0001d58:	e8 d3 01 00 00       	call   c0001f30 <kernel_panic>
c0001d5d:	83 c4 10             	add    $0x10,%esp
c0001d60:	eb fe                	jmp    c0001d60 <breakpoint_trap+0x10>
c0001d62:	8d b4 26 00 00 00 00 	lea    0x0(%esi,%eiz,1),%esi
c0001d69:	8d bc 27 00 00 00 00 	lea    0x0(%edi,%eiz,1),%edi

c0001d70 <overflow_trap>:
c0001d70:	83 ec 18             	sub    $0x18,%esp
c0001d73:	68 bc 67 00 c0       	push   $0xc00067bc
c0001d78:	e8 b3 01 00 00       	call   c0001f30 <kernel_panic>
c0001d7d:	83 c4 10             	add    $0x10,%esp
c0001d80:	eb fe                	jmp    c0001d80 <overflow_trap+0x10>
c0001d82:	8d b4 26 00 00 00 00 	lea    0x0(%esi,%eiz,1),%esi
c0001d89:	8d bc 27 00 00 00 00 	lea    0x0(%edi,%eiz,1),%edi

c0001d90 <bounds_check_fault>:
c0001d90:	83 ec 18             	sub    $0x18,%esp
c0001d93:	68 ca 67 00 c0       	push   $0xc00067ca
c0001d98:	e8 93 01 00 00       	call   c0001f30 <kernel_panic>
c0001d9d:	83 c4 10             	add    $0x10,%esp
c0001da0:	eb fe                	jmp    c0001da0 <bounds_check_fault+0x10>
c0001da2:	8d b4 26 00 00 00 00 	lea    0x0(%esi,%eiz,1),%esi
c0001da9:	8d bc 27 00 00 00 00 	lea    0x0(%edi,%eiz,1),%edi

c0001db0 <invalid_opcode_fault>:
c0001db0:	83 ec 18             	sub    $0x18,%esp
c0001db3:	68 dd 67 00 c0       	push   $0xc00067dd
c0001db8:	e8 73 01 00 00       	call   c0001f30 <kernel_panic>
c0001dbd:	83 c4 10             	add    $0x10,%esp
c0001dc0:	eb fe                	jmp    c0001dc0 <invalid_opcode_fault+0x10>
c0001dc2:	8d b4 26 00 00 00 00 	lea    0x0(%esi,%eiz,1),%esi
c0001dc9:	8d bc 27 00 00 00 00 	lea    0x0(%edi,%eiz,1),%edi

c0001dd0 <no_device_fault>:
c0001dd0:	83 ec 18             	sub    $0x18,%esp
c0001dd3:	68 ec 67 00 c0       	push   $0xc00067ec
c0001dd8:	e8 53 01 00 00       	call   c0001f30 <kernel_panic>
c0001ddd:	83 c4 10             	add    $0x10,%esp
c0001de0:	eb fe                	jmp    c0001de0 <no_device_fault+0x10>
c0001de2:	8d b4 26 00 00 00 00 	lea    0x0(%esi,%eiz,1),%esi
c0001de9:	8d bc 27 00 00 00 00 	lea    0x0(%edi,%eiz,1),%edi

c0001df0 <double_fault_abort>:
c0001df0:	83 ec 18             	sub    $0x18,%esp
c0001df3:	68 fd 67 00 c0       	push   $0xc00067fd
c0001df8:	e8 33 01 00 00       	call   c0001f30 <kernel_panic>
c0001dfd:	83 c4 10             	add    $0x10,%esp
c0001e00:	eb fe                	jmp    c0001e00 <double_fault_abort+0x10>
c0001e02:	8d b4 26 00 00 00 00 	lea    0x0(%esi,%eiz,1),%esi
c0001e09:	8d bc 27 00 00 00 00 	lea    0x0(%edi,%eiz,1),%edi

c0001e10 <invalid_tss_fault>:
c0001e10:	83 ec 18             	sub    $0x18,%esp
c0001e13:	68 0a 68 00 c0       	push   $0xc000680a
c0001e18:	e8 13 01 00 00       	call   c0001f30 <kernel_panic>
c0001e1d:	83 c4 10             	add    $0x10,%esp
c0001e20:	eb fe                	jmp    c0001e20 <invalid_tss_fault+0x10>
c0001e22:	8d b4 26 00 00 00 00 	lea    0x0(%esi,%eiz,1),%esi
c0001e29:	8d bc 27 00 00 00 00 	lea    0x0(%edi,%eiz,1),%edi

c0001e30 <no_segment_fault>:
c0001e30:	83 ec 18             	sub    $0x18,%esp
c0001e33:	68 16 68 00 c0       	push   $0xc0006816
c0001e38:	e8 f3 00 00 00       	call   c0001f30 <kernel_panic>
c0001e3d:	83 c4 10             	add    $0x10,%esp
c0001e40:	eb fe                	jmp    c0001e40 <no_segment_fault+0x10>
c0001e42:	8d b4 26 00 00 00 00 	lea    0x0(%esi,%eiz,1),%esi
c0001e49:	8d bc 27 00 00 00 00 	lea    0x0(%edi,%eiz,1),%edi

c0001e50 <stack_fault>:
c0001e50:	83 ec 18             	sub    $0x18,%esp
c0001e53:	68 26 68 00 c0       	push   $0xc0006826
c0001e58:	e8 d3 00 00 00       	call   c0001f30 <kernel_panic>
c0001e5d:	83 c4 10             	add    $0x10,%esp
c0001e60:	eb fe                	jmp    c0001e60 <stack_fault+0x10>
c0001e62:	8d b4 26 00 00 00 00 	lea    0x0(%esi,%eiz,1),%esi
c0001e69:	8d bc 27 00 00 00 00 	lea    0x0(%edi,%eiz,1),%edi

c0001e70 <general_protection_fault>:
c0001e70:	83 ec 18             	sub    $0x18,%esp
c0001e73:	68 32 68 00 c0       	push   $0xc0006832
c0001e78:	e8 b3 00 00 00       	call   c0001f30 <kernel_panic>
c0001e7d:	83 c4 10             	add    $0x10,%esp
c0001e80:	eb fe                	jmp    c0001e80 <general_protection_fault+0x10>
c0001e82:	8d b4 26 00 00 00 00 	lea    0x0(%esi,%eiz,1),%esi
c0001e89:	8d bc 27 00 00 00 00 	lea    0x0(%edi,%eiz,1),%edi

c0001e90 <page_fault>:
c0001e90:	83 ec 18             	sub    $0x18,%esp
c0001e93:	68 4b 68 00 c0       	push   $0xc000684b
c0001e98:	e8 93 00 00 00       	call   c0001f30 <kernel_panic>
c0001e9d:	83 c4 10             	add    $0x10,%esp
c0001ea0:	eb fe                	jmp    c0001ea0 <page_fault+0x10>
c0001ea2:	8d b4 26 00 00 00 00 	lea    0x0(%esi,%eiz,1),%esi
c0001ea9:	8d bc 27 00 00 00 00 	lea    0x0(%edi,%eiz,1),%edi

c0001eb0 <fpu_fault>:
c0001eb0:	83 ec 18             	sub    $0x18,%esp
c0001eb3:	68 56 68 00 c0       	push   $0xc0006856
c0001eb8:	e8 73 00 00 00       	call   c0001f30 <kernel_panic>
c0001ebd:	83 c4 10             	add    $0x10,%esp
c0001ec0:	eb fe                	jmp    c0001ec0 <fpu_fault+0x10>
c0001ec2:	8d b4 26 00 00 00 00 	lea    0x0(%esi,%eiz,1),%esi
c0001ec9:	8d bc 27 00 00 00 00 	lea    0x0(%edi,%eiz,1),%edi

c0001ed0 <alignment_check_fault>:
c0001ed0:	83 ec 18             	sub    $0x18,%esp
c0001ed3:	68 60 68 00 c0       	push   $0xc0006860
c0001ed8:	e8 53 00 00 00       	call   c0001f30 <kernel_panic>
c0001edd:	83 c4 10             	add    $0x10,%esp
c0001ee0:	eb fe                	jmp    c0001ee0 <alignment_check_fault+0x10>
c0001ee2:	8d b4 26 00 00 00 00 	lea    0x0(%esi,%eiz,1),%esi
c0001ee9:	8d bc 27 00 00 00 00 	lea    0x0(%edi,%eiz,1),%edi

c0001ef0 <machine_check_abort>:
c0001ef0:	83 ec 18             	sub    $0x18,%esp
c0001ef3:	68 70 68 00 c0       	push   $0xc0006870
c0001ef8:	e8 33 00 00 00       	call   c0001f30 <kernel_panic>
c0001efd:	83 c4 10             	add    $0x10,%esp
c0001f00:	eb fe                	jmp    c0001f00 <machine_check_abort+0x10>
c0001f02:	8d b4 26 00 00 00 00 	lea    0x0(%esi,%eiz,1),%esi
c0001f09:	8d bc 27 00 00 00 00 	lea    0x0(%edi,%eiz,1),%edi

c0001f10 <simd_fpu_fault>:
c0001f10:	83 ec 18             	sub    $0x18,%esp
c0001f13:	68 7e 68 00 c0       	push   $0xc000687e
c0001f18:	e8 13 00 00 00       	call   c0001f30 <kernel_panic>
c0001f1d:	83 c4 10             	add    $0x10,%esp
c0001f20:	eb fe                	jmp    c0001f20 <simd_fpu_fault+0x10>
c0001f22:	66 90                	xchg   %ax,%ax
c0001f24:	66 90                	xchg   %ax,%ax
c0001f26:	66 90                	xchg   %ax,%ax
c0001f28:	66 90                	xchg   %ax,%ax
c0001f2a:	66 90                	xchg   %ax,%ax
c0001f2c:	66 90                	xchg   %ax,%ax
c0001f2e:	66 90                	xchg   %ax,%ax

c0001f30 <kernel_panic>:
c0001f30:	83 ec 0c             	sub    $0xc,%esp
c0001f33:	e8 b8 f2 ff ff       	call   c00011f0 <disable>
c0001f38:	83 ec 0c             	sub    $0xc,%esp
c0001f3b:	6a 1f                	push   $0x1f
c0001f3d:	e8 3e e4 ff ff       	call   c0000380 <debug_clr_scr>
c0001f42:	58                   	pop    %eax
c0001f43:	5a                   	pop    %edx
c0001f44:	6a 00                	push   $0x0
c0001f46:	6a 00                	push   $0x0
c0001f48:	e8 f3 e3 ff ff       	call   c0000340 <debug_goto_xy>
c0001f4d:	c7 04 24 1f 00 00 00 	movl   $0x1f,(%esp)
c0001f54:	e8 c7 e3 ff ff       	call   c0000320 <debug_set_color>
c0001f59:	c7 04 24 78 65 00 c0 	movl   $0xc0006578,(%esp)
c0001f60:	e8 5b e4 ff ff       	call   c00003c0 <debug_puts>
c0001f65:	59                   	pop    %ecx
c0001f66:	58                   	pop    %eax
c0001f67:	ff 74 24 18          	pushl  0x18(%esp)
c0001f6b:	68 8d 68 00 c0       	push   $0xc000688d
c0001f70:	e8 9b e4 ff ff       	call   c0000410 <debug_printf>
c0001f75:	83 c4 10             	add    $0x10,%esp
c0001f78:	eb fe                	jmp    c0001f78 <kernel_panic+0x48>
c0001f7a:	66 90                	xchg   %ax,%ax
c0001f7c:	66 90                	xchg   %ax,%ax
c0001f7e:	66 90                	xchg   %ax,%ax

c0001f80 <mmap_first_free>:
c0001f80:	55                   	push   %ebp
c0001f81:	57                   	push   %edi
c0001f82:	56                   	push   %esi
c0001f83:	8b 35 ac 88 00 c0    	mov    0xc00088ac,%esi
c0001f89:	53                   	push   %ebx
c0001f8a:	c1 ee 05             	shr    $0x5,%esi
c0001f8d:	85 f6                	test   %esi,%esi
c0001f8f:	74 46                	je     c0001fd7 <mmap_first_free+0x57>
c0001f91:	8b 3d a8 88 00 c0    	mov    0xc00088a8,%edi
c0001f97:	31 db                	xor    %ebx,%ebx
c0001f99:	b8 01 00 00 00       	mov    $0x1,%eax
c0001f9e:	8b 14 9f             	mov    (%edi,%ebx,4),%edx
c0001fa1:	83 fa ff             	cmp    $0xffffffff,%edx
c0001fa4:	74 2a                	je     c0001fd0 <mmap_first_free+0x50>
c0001fa6:	31 c9                	xor    %ecx,%ecx
c0001fa8:	eb 0e                	jmp    c0001fb8 <mmap_first_free+0x38>
c0001faa:	8d b6 00 00 00 00    	lea    0x0(%esi),%esi
c0001fb0:	83 c1 01             	add    $0x1,%ecx
c0001fb3:	83 f9 20             	cmp    $0x20,%ecx
c0001fb6:	74 18                	je     c0001fd0 <mmap_first_free+0x50>
c0001fb8:	89 c5                	mov    %eax,%ebp
c0001fba:	d3 e5                	shl    %cl,%ebp
c0001fbc:	85 d5                	test   %edx,%ebp
c0001fbe:	75 f0                	jne    c0001fb0 <mmap_first_free+0x30>
c0001fc0:	c1 e3 05             	shl    $0x5,%ebx
c0001fc3:	8d 04 0b             	lea    (%ebx,%ecx,1),%eax
c0001fc6:	5b                   	pop    %ebx
c0001fc7:	5e                   	pop    %esi
c0001fc8:	5f                   	pop    %edi
c0001fc9:	5d                   	pop    %ebp
c0001fca:	c3                   	ret    
c0001fcb:	90                   	nop
c0001fcc:	8d 74 26 00          	lea    0x0(%esi,%eiz,1),%esi
c0001fd0:	83 c3 01             	add    $0x1,%ebx
c0001fd3:	39 f3                	cmp    %esi,%ebx
c0001fd5:	75 c7                	jne    c0001f9e <mmap_first_free+0x1e>
c0001fd7:	5b                   	pop    %ebx
c0001fd8:	b8 ff ff ff ff       	mov    $0xffffffff,%eax
c0001fdd:	5e                   	pop    %esi
c0001fde:	5f                   	pop    %edi
c0001fdf:	5d                   	pop    %ebp
c0001fe0:	c3                   	ret    
c0001fe1:	eb 0d                	jmp    c0001ff0 <mmap_first_free_s>
c0001fe3:	90                   	nop
c0001fe4:	90                   	nop
c0001fe5:	90                   	nop
c0001fe6:	90                   	nop
c0001fe7:	90                   	nop
c0001fe8:	90                   	nop
c0001fe9:	90                   	nop
c0001fea:	90                   	nop
c0001feb:	90                   	nop
c0001fec:	90                   	nop
c0001fed:	90                   	nop
c0001fee:	90                   	nop
c0001fef:	90                   	nop

c0001ff0 <mmap_first_free_s>:
c0001ff0:	55                   	push   %ebp
c0001ff1:	57                   	push   %edi
c0001ff2:	56                   	push   %esi
c0001ff3:	53                   	push   %ebx
c0001ff4:	83 ec 18             	sub    $0x18,%esp
c0001ff7:	8b 7c 24 2c          	mov    0x2c(%esp),%edi
c0001ffb:	85 ff                	test   %edi,%edi
c0001ffd:	0f 84 cc 00 00 00    	je     c00020cf <mmap_first_free_s+0xdf>
c0002003:	83 ff 01             	cmp    $0x1,%edi
c0002006:	0f 84 e4 00 00 00    	je     c00020f0 <mmap_first_free_s+0x100>
c000200c:	a1 ac 88 00 c0       	mov    0xc00088ac,%eax
c0002011:	8b 1d a8 88 00 c0    	mov    0xc00088a8,%ebx
c0002017:	c7 44 24 10 00 00 00 	movl   $0x0,0x10(%esp)
c000201e:	00 
c000201f:	c1 e8 05             	shr    $0x5,%eax
c0002022:	89 1c 24             	mov    %ebx,(%esp)
c0002025:	85 c0                	test   %eax,%eax
c0002027:	89 44 24 14          	mov    %eax,0x14(%esp)
c000202b:	0f 84 9e 00 00 00    	je     c00020cf <mmap_first_free_s+0xdf>
c0002031:	8b 44 24 10          	mov    0x10(%esp),%eax
c0002035:	8b 34 24             	mov    (%esp),%esi
c0002038:	c7 44 24 04 00 00 00 	movl   $0x0,0x4(%esp)
c000203f:	00 
c0002040:	8b 34 86             	mov    (%esi,%eax,4),%esi
c0002043:	c1 e0 05             	shl    $0x5,%eax
c0002046:	89 44 24 0c          	mov    %eax,0xc(%esp)
c000204a:	83 fe ff             	cmp    $0xffffffff,%esi
c000204d:	89 74 24 08          	mov    %esi,0x8(%esp)
c0002051:	74 69                	je     c00020bc <mmap_first_free_s+0xcc>
c0002053:	0f b6 4c 24 04       	movzbl 0x4(%esp),%ecx
c0002058:	8b 5c 24 08          	mov    0x8(%esp),%ebx
c000205c:	be 01 00 00 00       	mov    $0x1,%esi
c0002061:	d3 e6                	shl    %cl,%esi
c0002063:	21 f3                	and    %esi,%ebx
c0002065:	75 47                	jne    c00020ae <mmap_first_free_s+0xbe>
c0002067:	03 74 24 0c          	add    0xc(%esp),%esi
c000206b:	31 d2                	xor    %edx,%edx
c000206d:	8d 76 00             	lea    0x0(%esi),%esi
c0002070:	8d 0c 32             	lea    (%edx,%esi,1),%ecx
c0002073:	8d 41 1f             	lea    0x1f(%ecx),%eax
c0002076:	85 c9                	test   %ecx,%ecx
c0002078:	89 cd                	mov    %ecx,%ebp
c000207a:	0f 49 c1             	cmovns %ecx,%eax
c000207d:	c1 fd 1f             	sar    $0x1f,%ebp
c0002080:	c1 ed 1b             	shr    $0x1b,%ebp
c0002083:	c1 f8 05             	sar    $0x5,%eax
c0002086:	01 e9                	add    %ebp,%ecx
c0002088:	83 e1 1f             	and    $0x1f,%ecx
c000208b:	29 e9                	sub    %ebp,%ecx
c000208d:	bd 01 00 00 00       	mov    $0x1,%ebp
c0002092:	d3 e5                	shl    %cl,%ebp
c0002094:	89 e9                	mov    %ebp,%ecx
c0002096:	8b 2c 24             	mov    (%esp),%ebp
c0002099:	23 4c 85 00          	and    0x0(%ebp,%eax,4),%ecx
c000209d:	83 f9 01             	cmp    $0x1,%ecx
c00020a0:	83 d3 00             	adc    $0x0,%ebx
c00020a3:	39 fb                	cmp    %edi,%ebx
c00020a5:	74 39                	je     c00020e0 <mmap_first_free_s+0xf0>
c00020a7:	83 c2 01             	add    $0x1,%edx
c00020aa:	39 d7                	cmp    %edx,%edi
c00020ac:	73 c2                	jae    c0002070 <mmap_first_free_s+0x80>
c00020ae:	83 44 24 04 01       	addl   $0x1,0x4(%esp)
c00020b3:	8b 44 24 04          	mov    0x4(%esp),%eax
c00020b7:	83 f8 20             	cmp    $0x20,%eax
c00020ba:	75 97                	jne    c0002053 <mmap_first_free_s+0x63>
c00020bc:	83 44 24 10 01       	addl   $0x1,0x10(%esp)
c00020c1:	8b 44 24 10          	mov    0x10(%esp),%eax
c00020c5:	3b 44 24 14          	cmp    0x14(%esp),%eax
c00020c9:	0f 85 62 ff ff ff    	jne    c0002031 <mmap_first_free_s+0x41>
c00020cf:	83 c4 18             	add    $0x18,%esp
c00020d2:	b8 ff ff ff ff       	mov    $0xffffffff,%eax
c00020d7:	5b                   	pop    %ebx
c00020d8:	5e                   	pop    %esi
c00020d9:	5f                   	pop    %edi
c00020da:	5d                   	pop    %ebp
c00020db:	c3                   	ret    
c00020dc:	8d 74 26 00          	lea    0x0(%esi,%eiz,1),%esi
c00020e0:	8b 44 24 04          	mov    0x4(%esp),%eax
c00020e4:	03 44 24 0c          	add    0xc(%esp),%eax
c00020e8:	83 c4 18             	add    $0x18,%esp
c00020eb:	5b                   	pop    %ebx
c00020ec:	5e                   	pop    %esi
c00020ed:	5f                   	pop    %edi
c00020ee:	5d                   	pop    %ebp
c00020ef:	c3                   	ret    
c00020f0:	83 c4 18             	add    $0x18,%esp
c00020f3:	5b                   	pop    %ebx
c00020f4:	5e                   	pop    %esi
c00020f5:	5f                   	pop    %edi
c00020f6:	5d                   	pop    %ebp
c00020f7:	e9 84 fe ff ff       	jmp    c0001f80 <mmap_first_free>
c00020fc:	8d 74 26 00          	lea    0x0(%esi,%eiz,1),%esi

c0002100 <pmmngr_init>:
c0002100:	83 ec 10             	sub    $0x10,%esp
c0002103:	8b 44 24 14          	mov    0x14(%esp),%eax
c0002107:	8b 54 24 18          	mov    0x18(%esp),%edx
c000210b:	a3 b4 88 00 c0       	mov    %eax,0xc00088b4
c0002110:	c1 e0 0a             	shl    $0xa,%eax
c0002113:	89 15 a8 88 00 c0    	mov    %edx,0xc00088a8
c0002119:	89 c1                	mov    %eax,%ecx
c000211b:	c1 e8 0f             	shr    $0xf,%eax
c000211e:	50                   	push   %eax
c000211f:	6a 0f                	push   $0xf
c0002121:	c1 e9 0c             	shr    $0xc,%ecx
c0002124:	52                   	push   %edx
c0002125:	89 0d ac 88 00 c0    	mov    %ecx,0xc00088ac
c000212b:	89 0d b0 88 00 c0    	mov    %ecx,0xc00088b0
c0002131:	e8 ca e5 ff ff       	call   c0000700 <memset>
c0002136:	83 c4 1c             	add    $0x1c,%esp
c0002139:	c3                   	ret    
c000213a:	8d b6 00 00 00 00    	lea    0x0(%esi),%esi

c0002140 <pmmngr_init_region>:
c0002140:	55                   	push   %ebp
c0002141:	57                   	push   %edi
c0002142:	56                   	push   %esi
c0002143:	53                   	push   %ebx
c0002144:	bb 01 00 00 00       	mov    $0x1,%ebx
c0002149:	83 ec 04             	sub    $0x4,%esp
c000214c:	a1 b0 88 00 c0       	mov    0xc00088b0,%eax
c0002151:	8b 15 a8 88 00 c0    	mov    0xc00088a8,%edx
c0002157:	8b 4c 24 18          	mov    0x18(%esp),%ecx
c000215b:	8b 7c 24 1c          	mov    0x1c(%esp),%edi
c000215f:	89 04 24             	mov    %eax,(%esp)
c0002162:	c1 e9 0c             	shr    $0xc,%ecx
c0002165:	c1 ef 0c             	shr    $0xc,%edi
c0002168:	8d 74 0f 01          	lea    0x1(%edi,%ecx,1),%esi
c000216c:	8d 74 26 00          	lea    0x0(%esi,%eiz,1),%esi
c0002170:	89 c8                	mov    %ecx,%eax
c0002172:	89 dd                	mov    %ebx,%ebp
c0002174:	d3 e5                	shl    %cl,%ebp
c0002176:	c1 f8 05             	sar    $0x5,%eax
c0002179:	83 c1 01             	add    $0x1,%ecx
c000217c:	f7 d5                	not    %ebp
c000217e:	21 2c 82             	and    %ebp,(%edx,%eax,4)
c0002181:	39 f1                	cmp    %esi,%ecx
c0002183:	75 eb                	jne    c0002170 <pmmngr_init_region+0x30>
c0002185:	8b 04 24             	mov    (%esp),%eax
c0002188:	83 0a 01             	orl    $0x1,(%edx)
c000218b:	83 e8 01             	sub    $0x1,%eax
c000218e:	29 f8                	sub    %edi,%eax
c0002190:	a3 b0 88 00 c0       	mov    %eax,0xc00088b0
c0002195:	83 c4 04             	add    $0x4,%esp
c0002198:	5b                   	pop    %ebx
c0002199:	5e                   	pop    %esi
c000219a:	5f                   	pop    %edi
c000219b:	5d                   	pop    %ebp
c000219c:	c3                   	ret    
c000219d:	8d 76 00             	lea    0x0(%esi),%esi

c00021a0 <pmmngr_deinit_region>:
c00021a0:	55                   	push   %ebp
c00021a1:	57                   	push   %edi
c00021a2:	56                   	push   %esi
c00021a3:	53                   	push   %ebx
c00021a4:	bb 01 00 00 00       	mov    $0x1,%ebx
c00021a9:	83 ec 04             	sub    $0x4,%esp
c00021ac:	a1 b0 88 00 c0       	mov    0xc00088b0,%eax
c00021b1:	8b 15 a8 88 00 c0    	mov    0xc00088a8,%edx
c00021b7:	8b 4c 24 18          	mov    0x18(%esp),%ecx
c00021bb:	8b 7c 24 1c          	mov    0x1c(%esp),%edi
c00021bf:	89 04 24             	mov    %eax,(%esp)
c00021c2:	c1 e9 0c             	shr    $0xc,%ecx
c00021c5:	c1 ef 0c             	shr    $0xc,%edi
c00021c8:	8d 74 0f 01          	lea    0x1(%edi,%ecx,1),%esi
c00021cc:	8d 74 26 00          	lea    0x0(%esi,%eiz,1),%esi
c00021d0:	89 c8                	mov    %ecx,%eax
c00021d2:	89 dd                	mov    %ebx,%ebp
c00021d4:	d3 e5                	shl    %cl,%ebp
c00021d6:	c1 f8 05             	sar    $0x5,%eax
c00021d9:	83 c1 01             	add    $0x1,%ecx
c00021dc:	09 2c 82             	or     %ebp,(%edx,%eax,4)
c00021df:	39 f1                	cmp    %esi,%ecx
c00021e1:	75 ed                	jne    c00021d0 <pmmngr_deinit_region+0x30>
c00021e3:	8b 04 24             	mov    (%esp),%eax
c00021e6:	8d 44 07 01          	lea    0x1(%edi,%eax,1),%eax
c00021ea:	a3 b0 88 00 c0       	mov    %eax,0xc00088b0
c00021ef:	83 c4 04             	add    $0x4,%esp
c00021f2:	5b                   	pop    %ebx
c00021f3:	5e                   	pop    %esi
c00021f4:	5f                   	pop    %edi
c00021f5:	5d                   	pop    %ebp
c00021f6:	c3                   	ret    
c00021f7:	89 f6                	mov    %esi,%esi
c00021f9:	8d bc 27 00 00 00 00 	lea    0x0(%edi,%eiz,1),%edi

c0002200 <pmmngr_alloc_block>:
c0002200:	57                   	push   %edi
c0002201:	56                   	push   %esi
c0002202:	53                   	push   %ebx
c0002203:	8b 1d b0 88 00 c0    	mov    0xc00088b0,%ebx
c0002209:	39 1d ac 88 00 c0    	cmp    %ebx,0xc00088ac
c000220f:	74 4f                	je     c0002260 <pmmngr_alloc_block+0x60>
c0002211:	e8 6a fd ff ff       	call   c0001f80 <mmap_first_free>
c0002216:	83 f8 ff             	cmp    $0xffffffff,%eax
c0002219:	74 45                	je     c0002260 <pmmngr_alloc_block+0x60>
c000221b:	8d 50 1f             	lea    0x1f(%eax),%edx
c000221e:	85 c0                	test   %eax,%eax
c0002220:	89 c7                	mov    %eax,%edi
c0002222:	8b 35 a8 88 00 c0    	mov    0xc00088a8,%esi
c0002228:	0f 49 d0             	cmovns %eax,%edx
c000222b:	c1 ff 1f             	sar    $0x1f,%edi
c000222e:	83 c3 01             	add    $0x1,%ebx
c0002231:	c1 ef 1b             	shr    $0x1b,%edi
c0002234:	c1 fa 05             	sar    $0x5,%edx
c0002237:	89 1d b0 88 00 c0    	mov    %ebx,0xc00088b0
c000223d:	8d 0c 38             	lea    (%eax,%edi,1),%ecx
c0002240:	c1 e0 0c             	shl    $0xc,%eax
c0002243:	83 e1 1f             	and    $0x1f,%ecx
c0002246:	29 f9                	sub    %edi,%ecx
c0002248:	bf 01 00 00 00       	mov    $0x1,%edi
c000224d:	d3 e7                	shl    %cl,%edi
c000224f:	09 3c 96             	or     %edi,(%esi,%edx,4)
c0002252:	5b                   	pop    %ebx
c0002253:	5e                   	pop    %esi
c0002254:	5f                   	pop    %edi
c0002255:	c3                   	ret    
c0002256:	8d 76 00             	lea    0x0(%esi),%esi
c0002259:	8d bc 27 00 00 00 00 	lea    0x0(%edi,%eiz,1),%edi
c0002260:	5b                   	pop    %ebx
c0002261:	31 c0                	xor    %eax,%eax
c0002263:	5e                   	pop    %esi
c0002264:	5f                   	pop    %edi
c0002265:	c3                   	ret    
c0002266:	8d 76 00             	lea    0x0(%esi),%esi
c0002269:	8d bc 27 00 00 00 00 	lea    0x0(%edi,%eiz,1),%edi

c0002270 <pmmngr_free_block>:
c0002270:	53                   	push   %ebx
c0002271:	8b 4c 24 08          	mov    0x8(%esp),%ecx
c0002275:	b8 01 00 00 00       	mov    $0x1,%eax
c000227a:	8b 15 a8 88 00 c0    	mov    0xc00088a8,%edx
c0002280:	83 2d b0 88 00 c0 01 	subl   $0x1,0xc00088b0
c0002287:	c1 e9 0c             	shr    $0xc,%ecx
c000228a:	89 cb                	mov    %ecx,%ebx
c000228c:	d3 e0                	shl    %cl,%eax
c000228e:	c1 fb 05             	sar    $0x5,%ebx
c0002291:	f7 d0                	not    %eax
c0002293:	21 04 9a             	and    %eax,(%edx,%ebx,4)
c0002296:	5b                   	pop    %ebx
c0002297:	c3                   	ret    
c0002298:	90                   	nop
c0002299:	8d b4 26 00 00 00 00 	lea    0x0(%esi,%eiz,1),%esi

c00022a0 <pmmngr_alloc_blocks>:
c00022a0:	55                   	push   %ebp
c00022a1:	57                   	push   %edi
c00022a2:	56                   	push   %esi
c00022a3:	53                   	push   %ebx
c00022a4:	31 db                	xor    %ebx,%ebx
c00022a6:	83 ec 08             	sub    $0x8,%esp
c00022a9:	a1 b0 88 00 c0       	mov    0xc00088b0,%eax
c00022ae:	89 c6                	mov    %eax,%esi
c00022b0:	89 04 24             	mov    %eax,(%esp)
c00022b3:	a1 ac 88 00 c0       	mov    0xc00088ac,%eax
c00022b8:	29 f0                	sub    %esi,%eax
c00022ba:	39 44 24 1c          	cmp    %eax,0x1c(%esp)
c00022be:	73 6c                	jae    c000232c <pmmngr_alloc_blocks+0x8c>
c00022c0:	ff 74 24 1c          	pushl  0x1c(%esp)
c00022c4:	e8 27 fd ff ff       	call   c0001ff0 <mmap_first_free_s>
c00022c9:	59                   	pop    %ecx
c00022ca:	83 f8 ff             	cmp    $0xffffffff,%eax
c00022cd:	89 44 24 04          	mov    %eax,0x4(%esp)
c00022d1:	74 59                	je     c000232c <pmmngr_alloc_blocks+0x8c>
c00022d3:	8b 7c 24 1c          	mov    0x1c(%esp),%edi
c00022d7:	8b 54 24 1c          	mov    0x1c(%esp),%edx
c00022db:	be 01 00 00 00       	mov    $0x1,%esi
c00022e0:	8b 1d a8 88 00 c0    	mov    0xc00088a8,%ebx
c00022e6:	01 c7                	add    %eax,%edi
c00022e8:	85 d2                	test   %edx,%edx
c00022ea:	74 2d                	je     c0002319 <pmmngr_alloc_blocks+0x79>
c00022ec:	8d 74 26 00          	lea    0x0(%esi,%eiz,1),%esi
c00022f0:	8d 50 1f             	lea    0x1f(%eax),%edx
c00022f3:	85 c0                	test   %eax,%eax
c00022f5:	89 c5                	mov    %eax,%ebp
c00022f7:	0f 49 d0             	cmovns %eax,%edx
c00022fa:	c1 fd 1f             	sar    $0x1f,%ebp
c00022fd:	c1 ed 1b             	shr    $0x1b,%ebp
c0002300:	c1 fa 05             	sar    $0x5,%edx
c0002303:	8d 0c 28             	lea    (%eax,%ebp,1),%ecx
c0002306:	83 c0 01             	add    $0x1,%eax
c0002309:	83 e1 1f             	and    $0x1f,%ecx
c000230c:	29 e9                	sub    %ebp,%ecx
c000230e:	89 f5                	mov    %esi,%ebp
c0002310:	d3 e5                	shl    %cl,%ebp
c0002312:	09 2c 93             	or     %ebp,(%ebx,%edx,4)
c0002315:	39 c7                	cmp    %eax,%edi
c0002317:	75 d7                	jne    c00022f0 <pmmngr_alloc_blocks+0x50>
c0002319:	8b 04 24             	mov    (%esp),%eax
c000231c:	03 44 24 1c          	add    0x1c(%esp),%eax
c0002320:	8b 5c 24 04          	mov    0x4(%esp),%ebx
c0002324:	a3 b0 88 00 c0       	mov    %eax,0xc00088b0
c0002329:	c1 e3 0c             	shl    $0xc,%ebx
c000232c:	83 c4 08             	add    $0x8,%esp
c000232f:	89 d8                	mov    %ebx,%eax
c0002331:	5b                   	pop    %ebx
c0002332:	5e                   	pop    %esi
c0002333:	5f                   	pop    %edi
c0002334:	5d                   	pop    %ebp
c0002335:	c3                   	ret    
c0002336:	8d 76 00             	lea    0x0(%esi),%esi
c0002339:	8d bc 27 00 00 00 00 	lea    0x0(%edi,%eiz,1),%edi

c0002340 <pmmngr_free_blocks>:
c0002340:	55                   	push   %ebp
c0002341:	57                   	push   %edi
c0002342:	56                   	push   %esi
c0002343:	53                   	push   %ebx
c0002344:	be 01 00 00 00       	mov    $0x1,%esi
c0002349:	8b 44 24 14          	mov    0x14(%esp),%eax
c000234d:	8b 7c 24 18          	mov    0x18(%esp),%edi
c0002351:	8b 54 24 18          	mov    0x18(%esp),%edx
c0002355:	8b 1d a8 88 00 c0    	mov    0xc00088a8,%ebx
c000235b:	c1 e8 0c             	shr    $0xc,%eax
c000235e:	01 c7                	add    %eax,%edi
c0002360:	85 d2                	test   %edx,%edx
c0002362:	74 39                	je     c000239d <pmmngr_free_blocks+0x5d>
c0002364:	8d b6 00 00 00 00    	lea    0x0(%esi),%esi
c000236a:	8d bf 00 00 00 00    	lea    0x0(%edi),%edi
c0002370:	8d 50 1f             	lea    0x1f(%eax),%edx
c0002373:	85 c0                	test   %eax,%eax
c0002375:	89 c5                	mov    %eax,%ebp
c0002377:	0f 49 d0             	cmovns %eax,%edx
c000237a:	c1 fd 1f             	sar    $0x1f,%ebp
c000237d:	c1 ed 1b             	shr    $0x1b,%ebp
c0002380:	c1 fa 05             	sar    $0x5,%edx
c0002383:	8d 0c 28             	lea    (%eax,%ebp,1),%ecx
c0002386:	83 c0 01             	add    $0x1,%eax
c0002389:	83 e1 1f             	and    $0x1f,%ecx
c000238c:	29 e9                	sub    %ebp,%ecx
c000238e:	89 f5                	mov    %esi,%ebp
c0002390:	d3 e5                	shl    %cl,%ebp
c0002392:	89 e9                	mov    %ebp,%ecx
c0002394:	f7 d1                	not    %ecx
c0002396:	21 0c 93             	and    %ecx,(%ebx,%edx,4)
c0002399:	39 c7                	cmp    %eax,%edi
c000239b:	75 d3                	jne    c0002370 <pmmngr_free_blocks+0x30>
c000239d:	8b 44 24 18          	mov    0x18(%esp),%eax
c00023a1:	29 05 b0 88 00 c0    	sub    %eax,0xc00088b0
c00023a7:	5b                   	pop    %ebx
c00023a8:	5e                   	pop    %esi
c00023a9:	5f                   	pop    %edi
c00023aa:	5d                   	pop    %ebp
c00023ab:	c3                   	ret    
c00023ac:	8d 74 26 00          	lea    0x0(%esi,%eiz,1),%esi

c00023b0 <pmmngr_get_memory_size>:
c00023b0:	a1 b4 88 00 c0       	mov    0xc00088b4,%eax
c00023b5:	c3                   	ret    
c00023b6:	8d 76 00             	lea    0x0(%esi),%esi
c00023b9:	8d bc 27 00 00 00 00 	lea    0x0(%edi,%eiz,1),%edi

c00023c0 <pmmngr_get_block_count>:
c00023c0:	a1 ac 88 00 c0       	mov    0xc00088ac,%eax
c00023c5:	c3                   	ret    
c00023c6:	8d 76 00             	lea    0x0(%esi),%esi
c00023c9:	8d bc 27 00 00 00 00 	lea    0x0(%edi,%eiz,1),%edi

c00023d0 <pmmngr_get_use_block_count>:
c00023d0:	a1 b0 88 00 c0       	mov    0xc00088b0,%eax
c00023d5:	c3                   	ret    
c00023d6:	8d 76 00             	lea    0x0(%esi),%esi
c00023d9:	8d bc 27 00 00 00 00 	lea    0x0(%edi,%eiz,1),%edi

c00023e0 <pmmngr_get_free_block_count>:
c00023e0:	a1 ac 88 00 c0       	mov    0xc00088ac,%eax
c00023e5:	2b 05 b0 88 00 c0    	sub    0xc00088b0,%eax
c00023eb:	c3                   	ret    
c00023ec:	8d 74 26 00          	lea    0x0(%esi,%eiz,1),%esi

c00023f0 <pmmngr_get_block_size>:
c00023f0:	b8 00 10 00 00       	mov    $0x1000,%eax
c00023f5:	c3                   	ret    
c00023f6:	8d 76 00             	lea    0x0(%esi),%esi
c00023f9:	8d bc 27 00 00 00 00 	lea    0x0(%edi,%eiz,1),%edi

c0002400 <pmmngr_paging_enable>:
c0002400:	0f b6 44 24 04       	movzbl 0x4(%esp),%eax
c0002405:	89 44 24 04          	mov    %eax,0x4(%esp)
c0002409:	e9 66 ea ff ff       	jmp    c0000e74 <_enable_paging>
c000240e:	66 90                	xchg   %ax,%ax

c0002410 <pmmngr_is_paging>:
c0002410:	83 ec 28             	sub    $0x28,%esp
c0002413:	8d 44 24 18          	lea    0x18(%esp),%eax
c0002417:	c7 44 24 18 00 00 00 	movl   $0x0,0x18(%esp)
c000241e:	00 
c000241f:	50                   	push   %eax
c0002420:	e8 77 ea ff ff       	call   c0000e9c <_is_paging_enabled>
c0002425:	8b 44 24 1c          	mov    0x1c(%esp),%eax
c0002429:	83 c4 2c             	add    $0x2c,%esp
c000242c:	f7 d0                	not    %eax
c000242e:	c1 e8 1f             	shr    $0x1f,%eax
c0002431:	c3                   	ret    
c0002432:	8d b4 26 00 00 00 00 	lea    0x0(%esi,%eiz,1),%esi
c0002439:	8d bc 27 00 00 00 00 	lea    0x0(%edi,%eiz,1),%edi

c0002440 <pmmngr_load_PDBR>:
c0002440:	83 ec 18             	sub    $0x18,%esp
c0002443:	8d 44 24 1c          	lea    0x1c(%esp),%eax
c0002447:	50                   	push   %eax
c0002448:	e8 60 ea ff ff       	call   c0000ead <_load_pdbr>
c000244d:	83 c4 1c             	add    $0x1c,%esp
c0002450:	c3                   	ret    
c0002451:	eb 0d                	jmp    c0002460 <pmmngr_get_PDBR>
c0002453:	90                   	nop
c0002454:	90                   	nop
c0002455:	90                   	nop
c0002456:	90                   	nop
c0002457:	90                   	nop
c0002458:	90                   	nop
c0002459:	90                   	nop
c000245a:	90                   	nop
c000245b:	90                   	nop
c000245c:	90                   	nop
c000245d:	90                   	nop
c000245e:	90                   	nop
c000245f:	90                   	nop

c0002460 <pmmngr_get_PDBR>:
c0002460:	e9 57 ea ff ff       	jmp    c0000ebc <_get_pdbr>
c0002465:	66 90                	xchg   %ax,%ax
c0002467:	66 90                	xchg   %ax,%ax
c0002469:	66 90                	xchg   %ax,%ax
c000246b:	66 90                	xchg   %ax,%ax
c000246d:	66 90                	xchg   %ax,%ax
c000246f:	90                   	nop

c0002470 <vmmngr_ptable_lookup_entry>:
c0002470:	8b 54 24 04          	mov    0x4(%esp),%edx
c0002474:	85 d2                	test   %edx,%edx
c0002476:	74 18                	je     c0002490 <vmmngr_ptable_lookup_entry+0x20>
c0002478:	8b 44 24 08          	mov    0x8(%esp),%eax
c000247c:	c1 e8 0a             	shr    $0xa,%eax
c000247f:	25 fc 0f 00 00       	and    $0xffc,%eax
c0002484:	01 d0                	add    %edx,%eax
c0002486:	c3                   	ret    
c0002487:	89 f6                	mov    %esi,%esi
c0002489:	8d bc 27 00 00 00 00 	lea    0x0(%edi,%eiz,1),%edi
c0002490:	31 c0                	xor    %eax,%eax
c0002492:	c3                   	ret    
c0002493:	8d b6 00 00 00 00    	lea    0x0(%esi),%esi
c0002499:	8d bc 27 00 00 00 00 	lea    0x0(%edi,%eiz,1),%edi

c00024a0 <vmmngr_pdirectory_lookup_entry>:
c00024a0:	8b 54 24 04          	mov    0x4(%esp),%edx
c00024a4:	85 d2                	test   %edx,%edx
c00024a6:	74 18                	je     c00024c0 <vmmngr_pdirectory_lookup_entry+0x20>
c00024a8:	8b 44 24 08          	mov    0x8(%esp),%eax
c00024ac:	c1 e8 0a             	shr    $0xa,%eax
c00024af:	25 fc 0f 00 00       	and    $0xffc,%eax
c00024b4:	01 d0                	add    %edx,%eax
c00024b6:	c3                   	ret    
c00024b7:	89 f6                	mov    %esi,%esi
c00024b9:	8d bc 27 00 00 00 00 	lea    0x0(%edi,%eiz,1),%edi
c00024c0:	31 c0                	xor    %eax,%eax
c00024c2:	c3                   	ret    
c00024c3:	8d b6 00 00 00 00    	lea    0x0(%esi),%esi
c00024c9:	8d bc 27 00 00 00 00 	lea    0x0(%edi,%eiz,1),%edi

c00024d0 <vmmngr_switch_pdirectory>:
c00024d0:	83 ec 0c             	sub    $0xc,%esp
c00024d3:	31 c0                	xor    %eax,%eax
c00024d5:	8b 54 24 10          	mov    0x10(%esp),%edx
c00024d9:	85 d2                	test   %edx,%edx
c00024db:	74 1c                	je     c00024f9 <vmmngr_switch_pdirectory+0x29>
c00024dd:	83 ec 0c             	sub    $0xc,%esp
c00024e0:	ff 35 b8 88 00 c0    	pushl  0xc00088b8
c00024e6:	89 15 bc 88 00 c0    	mov    %edx,0xc00088bc
c00024ec:	e8 4f ff ff ff       	call   c0002440 <pmmngr_load_PDBR>
c00024f1:	83 c4 10             	add    $0x10,%esp
c00024f4:	b8 01 00 00 00       	mov    $0x1,%eax
c00024f9:	83 c4 0c             	add    $0xc,%esp
c00024fc:	c3                   	ret    
c00024fd:	8d 76 00             	lea    0x0(%esi),%esi

c0002500 <vmmngr_flush_tlb_entry>:
c0002500:	e9 60 e9 ff ff       	jmp    c0000e65 <_invalidate_tlb>
c0002505:	8d 74 26 00          	lea    0x0(%esi,%eiz,1),%esi
c0002509:	8d bc 27 00 00 00 00 	lea    0x0(%edi,%eiz,1),%edi

c0002510 <vmmngr_get_directory>:
c0002510:	a1 bc 88 00 c0       	mov    0xc00088bc,%eax
c0002515:	c3                   	ret    
c0002516:	8d 76 00             	lea    0x0(%esi),%esi
c0002519:	8d bc 27 00 00 00 00 	lea    0x0(%edi,%eiz,1),%edi

c0002520 <vmmngr_alloc_page>:
c0002520:	53                   	push   %ebx
c0002521:	83 ec 08             	sub    $0x8,%esp
c0002524:	8b 5c 24 10          	mov    0x10(%esp),%ebx
c0002528:	e8 d3 fc ff ff       	call   c0002200 <pmmngr_alloc_block>
c000252d:	31 d2                	xor    %edx,%edx
c000252f:	85 c0                	test   %eax,%eax
c0002531:	74 1c                	je     c000254f <vmmngr_alloc_page+0x2f>
c0002533:	83 ec 08             	sub    $0x8,%esp
c0002536:	50                   	push   %eax
c0002537:	53                   	push   %ebx
c0002538:	e8 23 03 00 00       	call   c0002860 <pt_entry_set_frame>
c000253d:	58                   	pop    %eax
c000253e:	5a                   	pop    %edx
c000253f:	6a 01                	push   $0x1
c0002541:	53                   	push   %ebx
c0002542:	e8 f9 02 00 00       	call   c0002840 <pt_entry_add_attrib>
c0002547:	83 c4 10             	add    $0x10,%esp
c000254a:	ba 01 00 00 00       	mov    $0x1,%edx
c000254f:	83 c4 08             	add    $0x8,%esp
c0002552:	89 d0                	mov    %edx,%eax
c0002554:	5b                   	pop    %ebx
c0002555:	c3                   	ret    
c0002556:	8d 76 00             	lea    0x0(%esi),%esi
c0002559:	8d bc 27 00 00 00 00 	lea    0x0(%edi,%eiz,1),%edi

c0002560 <vmmngr_free_page>:
c0002560:	53                   	push   %ebx
c0002561:	83 ec 14             	sub    $0x14,%esp
c0002564:	8b 5c 24 1c          	mov    0x1c(%esp),%ebx
c0002568:	ff 33                	pushl  (%ebx)
c000256a:	e8 31 03 00 00       	call   c00028a0 <pt_entry_pfn>
c000256f:	83 c4 10             	add    $0x10,%esp
c0002572:	85 c0                	test   %eax,%eax
c0002574:	74 0c                	je     c0002582 <vmmngr_free_page+0x22>
c0002576:	83 ec 0c             	sub    $0xc,%esp
c0002579:	50                   	push   %eax
c000257a:	e8 f1 fc ff ff       	call   c0002270 <pmmngr_free_block>
c000257f:	83 c4 10             	add    $0x10,%esp
c0002582:	83 ec 08             	sub    $0x8,%esp
c0002585:	6a 01                	push   $0x1
c0002587:	53                   	push   %ebx
c0002588:	e8 c3 02 00 00       	call   c0002850 <pt_entry_del_attrib>
c000258d:	83 c4 18             	add    $0x18,%esp
c0002590:	5b                   	pop    %ebx
c0002591:	c3                   	ret    
c0002592:	8d b4 26 00 00 00 00 	lea    0x0(%esi,%eiz,1),%esi
c0002599:	8d bc 27 00 00 00 00 	lea    0x0(%edi,%eiz,1),%edi

c00025a0 <vmmngr_map_page>:
c00025a0:	55                   	push   %ebp
c00025a1:	57                   	push   %edi
c00025a2:	56                   	push   %esi
c00025a3:	53                   	push   %ebx
c00025a4:	83 ec 0c             	sub    $0xc,%esp
c00025a7:	a1 bc 88 00 c0       	mov    0xc00088bc,%eax
c00025ac:	8b 5c 24 24          	mov    0x24(%esp),%ebx
c00025b0:	8b 74 24 20          	mov    0x20(%esp),%esi
c00025b4:	89 da                	mov    %ebx,%edx
c00025b6:	c1 ea 16             	shr    $0x16,%edx
c00025b9:	8d 3c 90             	lea    (%eax,%edx,4),%edi
c00025bc:	8b 07                	mov    (%edi),%eax
c00025be:	a8 01                	test   $0x1,%al
c00025c0:	75 3d                	jne    c00025ff <vmmngr_map_page+0x5f>
c00025c2:	e8 39 fc ff ff       	call   c0002200 <pmmngr_alloc_block>
c00025c7:	85 c0                	test   %eax,%eax
c00025c9:	89 c5                	mov    %eax,%ebp
c00025cb:	74 73                	je     c0002640 <vmmngr_map_page+0xa0>
c00025cd:	83 ec 04             	sub    $0x4,%esp
c00025d0:	68 00 10 00 00       	push   $0x1000
c00025d5:	6a 00                	push   $0x0
c00025d7:	50                   	push   %eax
c00025d8:	e8 23 e1 ff ff       	call   c0000700 <memset>
c00025dd:	58                   	pop    %eax
c00025de:	5a                   	pop    %edx
c00025df:	6a 01                	push   $0x1
c00025e1:	57                   	push   %edi
c00025e2:	e8 b9 01 00 00       	call   c00027a0 <pd_entry_add_attrib>
c00025e7:	59                   	pop    %ecx
c00025e8:	58                   	pop    %eax
c00025e9:	6a 02                	push   $0x2
c00025eb:	57                   	push   %edi
c00025ec:	e8 af 01 00 00       	call   c00027a0 <pd_entry_add_attrib>
c00025f1:	58                   	pop    %eax
c00025f2:	5a                   	pop    %edx
c00025f3:	55                   	push   %ebp
c00025f4:	57                   	push   %edi
c00025f5:	e8 c6 01 00 00       	call   c00027c0 <pd_entry_set_frame>
c00025fa:	8b 07                	mov    (%edi),%eax
c00025fc:	83 c4 10             	add    $0x10,%esp
c00025ff:	c1 eb 0a             	shr    $0xa,%ebx
c0002602:	25 00 f0 ff ff       	and    $0xfffff000,%eax
c0002607:	83 ec 08             	sub    $0x8,%esp
c000260a:	81 e3 fc 0f 00 00    	and    $0xffc,%ebx
c0002610:	56                   	push   %esi
c0002611:	01 c3                	add    %eax,%ebx
c0002613:	53                   	push   %ebx
c0002614:	e8 47 02 00 00       	call   c0002860 <pt_entry_set_frame>
c0002619:	89 5c 24 30          	mov    %ebx,0x30(%esp)
c000261d:	c7 44 24 34 01 00 00 	movl   $0x1,0x34(%esp)
c0002624:	00 
c0002625:	83 c4 1c             	add    $0x1c,%esp
c0002628:	5b                   	pop    %ebx
c0002629:	5e                   	pop    %esi
c000262a:	5f                   	pop    %edi
c000262b:	5d                   	pop    %ebp
c000262c:	e9 0f 02 00 00       	jmp    c0002840 <pt_entry_add_attrib>
c0002631:	eb 0d                	jmp    c0002640 <vmmngr_map_page+0xa0>
c0002633:	90                   	nop
c0002634:	90                   	nop
c0002635:	90                   	nop
c0002636:	90                   	nop
c0002637:	90                   	nop
c0002638:	90                   	nop
c0002639:	90                   	nop
c000263a:	90                   	nop
c000263b:	90                   	nop
c000263c:	90                   	nop
c000263d:	90                   	nop
c000263e:	90                   	nop
c000263f:	90                   	nop
c0002640:	83 c4 0c             	add    $0xc,%esp
c0002643:	5b                   	pop    %ebx
c0002644:	5e                   	pop    %esi
c0002645:	5f                   	pop    %edi
c0002646:	5d                   	pop    %ebp
c0002647:	c3                   	ret    
c0002648:	90                   	nop
c0002649:	8d b4 26 00 00 00 00 	lea    0x0(%esi,%eiz,1),%esi

c0002650 <vmmngr_initialize>:
c0002650:	55                   	push   %ebp
c0002651:	57                   	push   %edi
c0002652:	56                   	push   %esi
c0002653:	53                   	push   %ebx
c0002654:	83 ec 1c             	sub    $0x1c,%esp
c0002657:	e8 a4 fb ff ff       	call   c0002200 <pmmngr_alloc_block>
c000265c:	85 c0                	test   %eax,%eax
c000265e:	0f 84 34 01 00 00    	je     c0002798 <vmmngr_initialize+0x148>
c0002664:	89 c6                	mov    %eax,%esi
c0002666:	e8 95 fb ff ff       	call   c0002200 <pmmngr_alloc_block>
c000266b:	85 c0                	test   %eax,%eax
c000266d:	89 c7                	mov    %eax,%edi
c000266f:	0f 84 23 01 00 00    	je     c0002798 <vmmngr_initialize+0x148>
c0002675:	83 ec 04             	sub    $0x4,%esp
c0002678:	31 ed                	xor    %ebp,%ebp
c000267a:	68 00 10 00 00       	push   $0x1000
c000267f:	6a 00                	push   $0x0
c0002681:	56                   	push   %esi
c0002682:	e8 79 e0 ff ff       	call   c0000700 <memset>
c0002687:	83 c4 10             	add    $0x10,%esp
c000268a:	8d 5c 24 0c          	lea    0xc(%esp),%ebx
c000268e:	66 90                	xchg   %ax,%ax
c0002690:	c7 44 24 0c 00 00 00 	movl   $0x0,0xc(%esp)
c0002697:	00 
c0002698:	83 ec 08             	sub    $0x8,%esp
c000269b:	6a 01                	push   $0x1
c000269d:	53                   	push   %ebx
c000269e:	e8 9d 01 00 00       	call   c0002840 <pt_entry_add_attrib>
c00026a3:	58                   	pop    %eax
c00026a4:	5a                   	pop    %edx
c00026a5:	55                   	push   %ebp
c00026a6:	53                   	push   %ebx
c00026a7:	e8 b4 01 00 00       	call   c0002860 <pt_entry_set_frame>
c00026ac:	8b 54 24 1c          	mov    0x1c(%esp),%edx
c00026b0:	89 e8                	mov    %ebp,%eax
c00026b2:	81 c5 00 10 00 00    	add    $0x1000,%ebp
c00026b8:	c1 f8 0c             	sar    $0xc,%eax
c00026bb:	83 c4 10             	add    $0x10,%esp
c00026be:	81 fd 00 00 40 00    	cmp    $0x400000,%ebp
c00026c4:	89 14 87             	mov    %edx,(%edi,%eax,4)
c00026c7:	75 c7                	jne    c0002690 <vmmngr_initialize+0x40>
c00026c9:	bd 00 00 10 00       	mov    $0x100000,%ebp
c00026ce:	66 90                	xchg   %ax,%ax
c00026d0:	c7 44 24 0c 00 00 00 	movl   $0x0,0xc(%esp)
c00026d7:	00 
c00026d8:	83 ec 08             	sub    $0x8,%esp
c00026db:	6a 01                	push   $0x1
c00026dd:	53                   	push   %ebx
c00026de:	e8 5d 01 00 00       	call   c0002840 <pt_entry_add_attrib>
c00026e3:	59                   	pop    %ecx
c00026e4:	58                   	pop    %eax
c00026e5:	55                   	push   %ebp
c00026e6:	53                   	push   %ebx
c00026e7:	e8 74 01 00 00       	call   c0002860 <pt_entry_set_frame>
c00026ec:	8d 85 00 00 f0 bf    	lea    -0x40100000(%ebp),%eax
c00026f2:	8b 54 24 1c          	mov    0x1c(%esp),%edx
c00026f6:	81 c5 00 10 00 00    	add    $0x1000,%ebp
c00026fc:	83 c4 10             	add    $0x10,%esp
c00026ff:	c1 f8 0c             	sar    $0xc,%eax
c0002702:	25 ff 03 00 00       	and    $0x3ff,%eax
c0002707:	81 fd 00 00 50 00    	cmp    $0x500000,%ebp
c000270d:	89 14 86             	mov    %edx,(%esi,%eax,4)
c0002710:	75 be                	jne    c00026d0 <vmmngr_initialize+0x80>
c0002712:	83 ec 0c             	sub    $0xc,%esp
c0002715:	6a 03                	push   $0x3
c0002717:	e8 84 fb ff ff       	call   c00022a0 <pmmngr_alloc_blocks>
c000271c:	83 c4 10             	add    $0x10,%esp
c000271f:	85 c0                	test   %eax,%eax
c0002721:	89 c3                	mov    %eax,%ebx
c0002723:	74 73                	je     c0002798 <vmmngr_initialize+0x148>
c0002725:	83 ec 04             	sub    $0x4,%esp
c0002728:	8d ab 00 0c 00 00    	lea    0xc00(%ebx),%ebp
c000272e:	68 00 10 00 00       	push   $0x1000
c0002733:	6a 00                	push   $0x0
c0002735:	50                   	push   %eax
c0002736:	e8 c5 df ff ff       	call   c0000700 <memset>
c000273b:	58                   	pop    %eax
c000273c:	5a                   	pop    %edx
c000273d:	6a 01                	push   $0x1
c000273f:	55                   	push   %ebp
c0002740:	e8 5b 00 00 00       	call   c00027a0 <pd_entry_add_attrib>
c0002745:	59                   	pop    %ecx
c0002746:	58                   	pop    %eax
c0002747:	6a 02                	push   $0x2
c0002749:	55                   	push   %ebp
c000274a:	e8 51 00 00 00       	call   c00027a0 <pd_entry_add_attrib>
c000274f:	58                   	pop    %eax
c0002750:	5a                   	pop    %edx
c0002751:	56                   	push   %esi
c0002752:	55                   	push   %ebp
c0002753:	e8 68 00 00 00       	call   c00027c0 <pd_entry_set_frame>
c0002758:	59                   	pop    %ecx
c0002759:	5e                   	pop    %esi
c000275a:	6a 01                	push   $0x1
c000275c:	53                   	push   %ebx
c000275d:	e8 3e 00 00 00       	call   c00027a0 <pd_entry_add_attrib>
c0002762:	5d                   	pop    %ebp
c0002763:	58                   	pop    %eax
c0002764:	6a 02                	push   $0x2
c0002766:	53                   	push   %ebx
c0002767:	e8 34 00 00 00       	call   c00027a0 <pd_entry_add_attrib>
c000276c:	58                   	pop    %eax
c000276d:	5a                   	pop    %edx
c000276e:	57                   	push   %edi
c000276f:	53                   	push   %ebx
c0002770:	e8 4b 00 00 00       	call   c00027c0 <pd_entry_set_frame>
c0002775:	89 1c 24             	mov    %ebx,(%esp)
c0002778:	89 1d b8 88 00 c0    	mov    %ebx,0xc00088b8
c000277e:	89 1d bc 88 00 c0    	mov    %ebx,0xc00088bc
c0002784:	e8 b7 fc ff ff       	call   c0002440 <pmmngr_load_PDBR>
c0002789:	c7 04 24 01 00 00 00 	movl   $0x1,(%esp)
c0002790:	e8 6b fc ff ff       	call   c0002400 <pmmngr_paging_enable>
c0002795:	83 c4 10             	add    $0x10,%esp
c0002798:	83 c4 1c             	add    $0x1c,%esp
c000279b:	5b                   	pop    %ebx
c000279c:	5e                   	pop    %esi
c000279d:	5f                   	pop    %edi
c000279e:	5d                   	pop    %ebp
c000279f:	c3                   	ret    

c00027a0 <pd_entry_add_attrib>:
c00027a0:	8b 44 24 04          	mov    0x4(%esp),%eax
c00027a4:	8b 54 24 08          	mov    0x8(%esp),%edx
c00027a8:	09 10                	or     %edx,(%eax)
c00027aa:	c3                   	ret    
c00027ab:	90                   	nop
c00027ac:	8d 74 26 00          	lea    0x0(%esi,%eiz,1),%esi

c00027b0 <pd_entry_del_attrib>:
c00027b0:	8b 54 24 04          	mov    0x4(%esp),%edx
c00027b4:	8b 44 24 08          	mov    0x8(%esp),%eax
c00027b8:	f7 d0                	not    %eax
c00027ba:	21 02                	and    %eax,(%edx)
c00027bc:	c3                   	ret    
c00027bd:	8d 76 00             	lea    0x0(%esi),%esi

c00027c0 <pd_entry_set_frame>:
c00027c0:	8b 54 24 04          	mov    0x4(%esp),%edx
c00027c4:	8b 02                	mov    (%edx),%eax
c00027c6:	25 ff 0f 00 80       	and    $0x80000fff,%eax
c00027cb:	0b 44 24 08          	or     0x8(%esp),%eax
c00027cf:	89 02                	mov    %eax,(%edx)
c00027d1:	c3                   	ret    
c00027d2:	8d b4 26 00 00 00 00 	lea    0x0(%esi,%eiz,1),%esi
c00027d9:	8d bc 27 00 00 00 00 	lea    0x0(%edi,%eiz,1),%edi

c00027e0 <pd_entry_is_present>:
c00027e0:	0f b6 44 24 04       	movzbl 0x4(%esp),%eax
c00027e5:	83 e0 01             	and    $0x1,%eax
c00027e8:	c3                   	ret    
c00027e9:	8d b4 26 00 00 00 00 	lea    0x0(%esi,%eiz,1),%esi

c00027f0 <pd_entry_is_writable>:
c00027f0:	8b 44 24 04          	mov    0x4(%esp),%eax
c00027f4:	d1 e8                	shr    %eax
c00027f6:	83 e0 01             	and    $0x1,%eax
c00027f9:	c3                   	ret    
c00027fa:	8d b6 00 00 00 00    	lea    0x0(%esi),%esi

c0002800 <pd_entry_pfn>:
c0002800:	8b 44 24 04          	mov    0x4(%esp),%eax
c0002804:	25 00 f0 ff 7f       	and    $0x7ffff000,%eax
c0002809:	c3                   	ret    
c000280a:	8d b6 00 00 00 00    	lea    0x0(%esi),%esi

c0002810 <pd_entry_is_user>:
c0002810:	8b 44 24 04          	mov    0x4(%esp),%eax
c0002814:	c1 e8 02             	shr    $0x2,%eax
c0002817:	83 e0 01             	and    $0x1,%eax
c000281a:	c3                   	ret    
c000281b:	90                   	nop
c000281c:	8d 74 26 00          	lea    0x0(%esi,%eiz,1),%esi

c0002820 <pd_entry_is_4mb>:
c0002820:	8b 44 24 04          	mov    0x4(%esp),%eax
c0002824:	c1 e8 07             	shr    $0x7,%eax
c0002827:	83 e0 01             	and    $0x1,%eax
c000282a:	c3                   	ret    
c000282b:	90                   	nop
c000282c:	8d 74 26 00          	lea    0x0(%esi,%eiz,1),%esi

c0002830 <pd_entry_enable_global>:
c0002830:	f3 c3                	repz ret 
c0002832:	66 90                	xchg   %ax,%ax
c0002834:	66 90                	xchg   %ax,%ax
c0002836:	66 90                	xchg   %ax,%ax
c0002838:	66 90                	xchg   %ax,%ax
c000283a:	66 90                	xchg   %ax,%ax
c000283c:	66 90                	xchg   %ax,%ax
c000283e:	66 90                	xchg   %ax,%ax

c0002840 <pt_entry_add_attrib>:
c0002840:	8b 44 24 04          	mov    0x4(%esp),%eax
c0002844:	8b 54 24 08          	mov    0x8(%esp),%edx
c0002848:	09 10                	or     %edx,(%eax)
c000284a:	c3                   	ret    
c000284b:	90                   	nop
c000284c:	8d 74 26 00          	lea    0x0(%esi,%eiz,1),%esi

c0002850 <pt_entry_del_attrib>:
c0002850:	8b 54 24 04          	mov    0x4(%esp),%edx
c0002854:	8b 44 24 08          	mov    0x8(%esp),%eax
c0002858:	f7 d0                	not    %eax
c000285a:	21 02                	and    %eax,(%edx)
c000285c:	c3                   	ret    
c000285d:	8d 76 00             	lea    0x0(%esi),%esi

c0002860 <pt_entry_set_frame>:
c0002860:	8b 54 24 04          	mov    0x4(%esp),%edx
c0002864:	8b 02                	mov    (%edx),%eax
c0002866:	25 ff 0f 00 80       	and    $0x80000fff,%eax
c000286b:	0b 44 24 08          	or     0x8(%esp),%eax
c000286f:	89 02                	mov    %eax,(%edx)
c0002871:	c3                   	ret    
c0002872:	8d b4 26 00 00 00 00 	lea    0x0(%esi,%eiz,1),%esi
c0002879:	8d bc 27 00 00 00 00 	lea    0x0(%edi,%eiz,1),%edi

c0002880 <pt_entry_is_present>:
c0002880:	0f b6 44 24 04       	movzbl 0x4(%esp),%eax
c0002885:	83 e0 01             	and    $0x1,%eax
c0002888:	c3                   	ret    
c0002889:	8d b4 26 00 00 00 00 	lea    0x0(%esi,%eiz,1),%esi

c0002890 <pt_entry_is_writable>:
c0002890:	8b 44 24 04          	mov    0x4(%esp),%eax
c0002894:	d1 e8                	shr    %eax
c0002896:	83 e0 01             	and    $0x1,%eax
c0002899:	c3                   	ret    
c000289a:	8d b6 00 00 00 00    	lea    0x0(%esi),%esi

c00028a0 <pt_entry_pfn>:
c00028a0:	8b 44 24 04          	mov    0x4(%esp),%eax
c00028a4:	25 00 f0 ff 7f       	and    $0x7ffff000,%eax
c00028a9:	c3                   	ret    
c00028aa:	66 90                	xchg   %ax,%ax
c00028ac:	66 90                	xchg   %ax,%ax
c00028ae:	66 90                	xchg   %ax,%ax

c00028b0 <kybrd_ctrl_read_status>:
c00028b0:	83 ec 18             	sub    $0x18,%esp
c00028b3:	6a 64                	push   $0x64
c00028b5:	e8 e6 e8 ff ff       	call   c00011a0 <inportb>
c00028ba:	83 c4 1c             	add    $0x1c,%esp
c00028bd:	c3                   	ret    
c00028be:	66 90                	xchg   %ax,%ax

c00028c0 <kybrd_ctrl_send_cmd>:
c00028c0:	53                   	push   %ebx
c00028c1:	83 ec 08             	sub    $0x8,%esp
c00028c4:	8b 5c 24 10          	mov    0x10(%esp),%ebx
c00028c8:	90                   	nop
c00028c9:	8d b4 26 00 00 00 00 	lea    0x0(%esi,%eiz,1),%esi
c00028d0:	83 ec 0c             	sub    $0xc,%esp
c00028d3:	6a 64                	push   $0x64
c00028d5:	e8 c6 e8 ff ff       	call   c00011a0 <inportb>
c00028da:	83 c4 10             	add    $0x10,%esp
c00028dd:	a8 02                	test   $0x2,%al
c00028df:	75 ef                	jne    c00028d0 <kybrd_ctrl_send_cmd+0x10>
c00028e1:	83 ec 08             	sub    $0x8,%esp
c00028e4:	0f b6 db             	movzbl %bl,%ebx
c00028e7:	53                   	push   %ebx
c00028e8:	6a 64                	push   $0x64
c00028ea:	e8 d1 e8 ff ff       	call   c00011c0 <outportb>
c00028ef:	83 c4 18             	add    $0x18,%esp
c00028f2:	5b                   	pop    %ebx
c00028f3:	c3                   	ret    
c00028f4:	8d b6 00 00 00 00    	lea    0x0(%esi),%esi
c00028fa:	8d bf 00 00 00 00    	lea    0x0(%edi),%edi

c0002900 <kybrd_enc_read_buf>:
c0002900:	83 ec 18             	sub    $0x18,%esp
c0002903:	6a 60                	push   $0x60
c0002905:	e8 96 e8 ff ff       	call   c00011a0 <inportb>
c000290a:	83 c4 1c             	add    $0x1c,%esp
c000290d:	c3                   	ret    
c000290e:	66 90                	xchg   %ax,%ax

c0002910 <kybrd_enc_send_cmd>:
c0002910:	53                   	push   %ebx
c0002911:	83 ec 08             	sub    $0x8,%esp
c0002914:	8b 5c 24 10          	mov    0x10(%esp),%ebx
c0002918:	90                   	nop
c0002919:	8d b4 26 00 00 00 00 	lea    0x0(%esi,%eiz,1),%esi
c0002920:	83 ec 0c             	sub    $0xc,%esp
c0002923:	6a 64                	push   $0x64
c0002925:	e8 76 e8 ff ff       	call   c00011a0 <inportb>
c000292a:	83 c4 10             	add    $0x10,%esp
c000292d:	a8 02                	test   $0x2,%al
c000292f:	75 ef                	jne    c0002920 <kybrd_enc_send_cmd+0x10>
c0002931:	83 ec 08             	sub    $0x8,%esp
c0002934:	0f b6 db             	movzbl %bl,%ebx
c0002937:	53                   	push   %ebx
c0002938:	6a 60                	push   $0x60
c000293a:	e8 81 e8 ff ff       	call   c00011c0 <outportb>
c000293f:	83 c4 18             	add    $0x18,%esp
c0002942:	5b                   	pop    %ebx
c0002943:	c3                   	ret    
c0002944:	8d b6 00 00 00 00    	lea    0x0(%esi),%esi
c000294a:	8d bf 00 00 00 00    	lea    0x0(%edi),%edi

c0002950 <i86_kybrd_irq>:
c0002950:	56                   	push   %esi
c0002951:	53                   	push   %ebx
c0002952:	83 ec 10             	sub    $0x10,%esp
c0002955:	6a 64                	push   $0x64
c0002957:	e8 44 e8 ff ff       	call   c00011a0 <inportb>
c000295c:	83 c4 10             	add    $0x10,%esp
c000295f:	a8 01                	test   $0x1,%al
c0002961:	75 1d                	jne    c0002980 <i86_kybrd_irq+0x30>
c0002963:	83 ec 0c             	sub    $0xc,%esp
c0002966:	6a 01                	push   $0x1
c0002968:	e8 c3 e7 ff ff       	call   c0001130 <interruptdone>
c000296d:	83 c4 14             	add    $0x14,%esp
c0002970:	5b                   	pop    %ebx
c0002971:	5e                   	pop    %esi
c0002972:	c3                   	ret    
c0002973:	8d b6 00 00 00 00    	lea    0x0(%esi),%esi
c0002979:	8d bc 27 00 00 00 00 	lea    0x0(%edi,%eiz,1),%edi
c0002980:	83 ec 0c             	sub    $0xc,%esp
c0002983:	6a 60                	push   $0x60
c0002985:	e8 16 e8 ff ff       	call   c00011a0 <inportb>
c000298a:	0f b6 d8             	movzbl %al,%ebx
c000298d:	83 c4 10             	add    $0x10,%esp
c0002990:	8d 93 20 ff ff ff    	lea    -0xe0(%ebx),%edx
c0002996:	83 fa 01             	cmp    $0x1,%edx
c0002999:	0f 86 b1 00 00 00    	jbe    c0002a50 <i86_kybrd_irq+0x100>
c000299f:	84 c0                	test   %al,%al
c00029a1:	0f 88 f9 00 00 00    	js     c0002aa0 <i86_kybrd_irq+0x150>
c00029a7:	a2 ca 88 00 c0       	mov    %al,0xc00088ca
c00029ac:	8b 04 9d 40 42 00 c0 	mov    -0x3fffbdc0(,%ebx,4),%eax
c00029b3:	3d 04 40 00 00       	cmp    $0x4004,%eax
c00029b8:	0f 84 42 01 00 00    	je     c0002b00 <i86_kybrd_irq+0x1b0>
c00029be:	7f 30                	jg     c00029f0 <i86_kybrd_irq+0xa0>
c00029c0:	3d 01 40 00 00       	cmp    $0x4001,%eax
c00029c5:	0f 84 45 01 00 00    	je     c0002b10 <i86_kybrd_irq+0x1c0>
c00029cb:	0f 8f 0f 01 00 00    	jg     c0002ae0 <i86_kybrd_irq+0x190>
c00029d1:	3d 0f 30 00 00       	cmp    $0x300f,%eax
c00029d6:	75 78                	jne    c0002a50 <i86_kybrd_irq+0x100>
c00029d8:	0f b6 05 c9 88 00 c0 	movzbl 0xc00088c9,%eax
c00029df:	83 f0 01             	xor    $0x1,%eax
c00029e2:	a2 c9 88 00 c0       	mov    %al,0xc00088c9
c00029e7:	eb 38                	jmp    c0002a21 <i86_kybrd_irq+0xd1>
c00029e9:	8d b4 26 00 00 00 00 	lea    0x0(%esi,%eiz,1),%esi
c00029f0:	3d 07 40 00 00       	cmp    $0x4007,%eax
c00029f5:	0f 84 f7 00 00 00    	je     c0002af2 <i86_kybrd_irq+0x1a2>
c00029fb:	0f 8e 3f 01 00 00    	jle    c0002b40 <i86_kybrd_irq+0x1f0>
c0002a01:	3d 08 40 00 00       	cmp    $0x4008,%eax
c0002a06:	0f 84 f4 00 00 00    	je     c0002b00 <i86_kybrd_irq+0x1b0>
c0002a0c:	3d 10 40 00 00       	cmp    $0x4010,%eax
c0002a11:	75 3d                	jne    c0002a50 <i86_kybrd_irq+0x100>
c0002a13:	80 35 c8 88 00 c0 01 	xorb   $0x1,0xc00088c8
c0002a1a:	0f b6 05 c9 88 00 c0 	movzbl 0xc00088c9,%eax
c0002a21:	83 c8 04             	or     $0x4,%eax
c0002a24:	80 3d c7 88 00 c0 00 	cmpb   $0x0,0xc00088c7
c0002a2b:	be 00 00 00 00       	mov    $0x0,%esi
c0002a30:	0f 45 f0             	cmovne %eax,%esi
c0002a33:	83 ec 0c             	sub    $0xc,%esp
c0002a36:	68 ed 00 00 00       	push   $0xed
c0002a3b:	e8 d0 fe ff ff       	call   c0002910 <kybrd_enc_send_cmd>
c0002a40:	89 f0                	mov    %esi,%eax
c0002a42:	0f b6 c0             	movzbl %al,%eax
c0002a45:	89 04 24             	mov    %eax,(%esp)
c0002a48:	e8 c3 fe ff ff       	call   c0002910 <kybrd_enc_send_cmd>
c0002a4d:	83 c4 10             	add    $0x10,%esp
c0002a50:	81 fb fd 00 00 00    	cmp    $0xfd,%ebx
c0002a56:	74 38                	je     c0002a90 <i86_kybrd_irq+0x140>
c0002a58:	81 fb fe 00 00 00    	cmp    $0xfe,%ebx
c0002a5e:	74 20                	je     c0002a80 <i86_kybrd_irq+0x130>
c0002a60:	81 fb fc 00 00 00    	cmp    $0xfc,%ebx
c0002a66:	0f 85 f7 fe ff ff    	jne    c0002963 <i86_kybrd_irq+0x13>
c0002a6c:	c6 05 c3 88 00 c0 00 	movb   $0x0,0xc00088c3
c0002a73:	e9 eb fe ff ff       	jmp    c0002963 <i86_kybrd_irq+0x13>
c0002a78:	90                   	nop
c0002a79:	8d b4 26 00 00 00 00 	lea    0x0(%esi,%eiz,1),%esi
c0002a80:	c6 05 c1 88 00 c0 01 	movb   $0x1,0xc00088c1
c0002a87:	e9 d7 fe ff ff       	jmp    c0002963 <i86_kybrd_irq+0x13>
c0002a8c:	8d 74 26 00          	lea    0x0(%esi,%eiz,1),%esi
c0002a90:	c6 05 c2 88 00 c0 00 	movb   $0x0,0xc00088c2
c0002a97:	e9 c7 fe ff ff       	jmp    c0002963 <i86_kybrd_irq+0x13>
c0002a9c:	8d 74 26 00          	lea    0x0(%esi,%eiz,1),%esi
c0002aa0:	83 c3 80             	add    $0xffffff80,%ebx
c0002aa3:	8b 04 9d 40 42 00 c0 	mov    -0x3fffbdc0(,%ebx,4),%eax
c0002aaa:	8d 88 fe bf ff ff    	lea    -0x4002(%eax),%ecx
c0002ab0:	83 f9 06             	cmp    $0x6,%ecx
c0002ab3:	77 9b                	ja     c0002a50 <i86_kybrd_irq+0x100>
c0002ab5:	b8 01 00 00 00       	mov    $0x1,%eax
c0002aba:	d3 e0                	shl    %cl,%eax
c0002abc:	a8 44                	test   $0x44,%al
c0002abe:	0f 85 9c 00 00 00    	jne    c0002b60 <i86_kybrd_irq+0x210>
c0002ac4:	a8 11                	test   $0x11,%al
c0002ac6:	0f 85 a0 00 00 00    	jne    c0002b6c <i86_kybrd_irq+0x21c>
c0002acc:	a8 22                	test   $0x22,%al
c0002ace:	74 80                	je     c0002a50 <i86_kybrd_irq+0x100>
c0002ad0:	c6 05 c4 88 00 c0 00 	movb   $0x0,0xc00088c4
c0002ad7:	e9 74 ff ff ff       	jmp    c0002a50 <i86_kybrd_irq+0x100>
c0002adc:	8d 74 26 00          	lea    0x0(%esi,%eiz,1),%esi
c0002ae0:	3d 02 40 00 00       	cmp    $0x4002,%eax
c0002ae5:	74 64                	je     c0002b4b <i86_kybrd_irq+0x1fb>
c0002ae7:	3d 03 40 00 00       	cmp    $0x4003,%eax
c0002aec:	0f 85 5e ff ff ff    	jne    c0002a50 <i86_kybrd_irq+0x100>
c0002af2:	c6 05 c4 88 00 c0 01 	movb   $0x1,0xc00088c4
c0002af9:	e9 52 ff ff ff       	jmp    c0002a50 <i86_kybrd_irq+0x100>
c0002afe:	66 90                	xchg   %ax,%ax
c0002b00:	c6 05 c5 88 00 c0 01 	movb   $0x1,0xc00088c5
c0002b07:	e9 44 ff ff ff       	jmp    c0002a50 <i86_kybrd_irq+0x100>
c0002b0c:	8d 74 26 00          	lea    0x0(%esi,%eiz,1),%esi
c0002b10:	0f b6 15 c7 88 00 c0 	movzbl 0xc00088c7,%edx
c0002b17:	89 d0                	mov    %edx,%eax
c0002b19:	83 f0 01             	xor    $0x1,%eax
c0002b1c:	a2 c7 88 00 c0       	mov    %al,0xc00088c7
c0002b21:	0f b6 05 c9 88 00 c0 	movzbl 0xc00088c9,%eax
c0002b28:	83 c8 04             	or     $0x4,%eax
c0002b2b:	80 fa 01             	cmp    $0x1,%dl
c0002b2e:	e9 f8 fe ff ff       	jmp    c0002a2b <i86_kybrd_irq+0xdb>
c0002b33:	8d b6 00 00 00 00    	lea    0x0(%esi),%esi
c0002b39:	8d bc 27 00 00 00 00 	lea    0x0(%edi,%eiz,1),%edi
c0002b40:	3d 06 40 00 00       	cmp    $0x4006,%eax
c0002b45:	0f 85 05 ff ff ff    	jne    c0002a50 <i86_kybrd_irq+0x100>
c0002b4b:	c6 05 c6 88 00 c0 01 	movb   $0x1,0xc00088c6
c0002b52:	e9 f9 fe ff ff       	jmp    c0002a50 <i86_kybrd_irq+0x100>
c0002b57:	89 f6                	mov    %esi,%esi
c0002b59:	8d bc 27 00 00 00 00 	lea    0x0(%edi,%eiz,1),%edi
c0002b60:	c6 05 c5 88 00 c0 00 	movb   $0x0,0xc00088c5
c0002b67:	e9 e4 fe ff ff       	jmp    c0002a50 <i86_kybrd_irq+0x100>
c0002b6c:	c6 05 c6 88 00 c0 00 	movb   $0x0,0xc00088c6
c0002b73:	e9 d8 fe ff ff       	jmp    c0002a50 <i86_kybrd_irq+0x100>
c0002b78:	90                   	nop
c0002b79:	8d b4 26 00 00 00 00 	lea    0x0(%esi,%eiz,1),%esi

c0002b80 <kkybrd_get_scroll_lock>:
c0002b80:	0f b6 05 c8 88 00 c0 	movzbl 0xc00088c8,%eax
c0002b87:	c3                   	ret    
c0002b88:	90                   	nop
c0002b89:	8d b4 26 00 00 00 00 	lea    0x0(%esi,%eiz,1),%esi

c0002b90 <kkybrd_get_numlock>:
c0002b90:	0f b6 05 c9 88 00 c0 	movzbl 0xc00088c9,%eax
c0002b97:	c3                   	ret    
c0002b98:	90                   	nop
c0002b99:	8d b4 26 00 00 00 00 	lea    0x0(%esi,%eiz,1),%esi

c0002ba0 <kkybrd_get_capslock>:
c0002ba0:	0f b6 05 c7 88 00 c0 	movzbl 0xc00088c7,%eax
c0002ba7:	c3                   	ret    
c0002ba8:	90                   	nop
c0002ba9:	8d b4 26 00 00 00 00 	lea    0x0(%esi,%eiz,1),%esi

c0002bb0 <kkybrd_get_ctrl>:
c0002bb0:	0f b6 05 c4 88 00 c0 	movzbl 0xc00088c4,%eax
c0002bb7:	c3                   	ret    
c0002bb8:	90                   	nop
c0002bb9:	8d b4 26 00 00 00 00 	lea    0x0(%esi,%eiz,1),%esi

c0002bc0 <kkybrd_get_alt>:
c0002bc0:	0f b6 05 c5 88 00 c0 	movzbl 0xc00088c5,%eax
c0002bc7:	c3                   	ret    
c0002bc8:	90                   	nop
c0002bc9:	8d b4 26 00 00 00 00 	lea    0x0(%esi,%eiz,1),%esi

c0002bd0 <kkybrd_get_shift>:
c0002bd0:	0f b6 05 c6 88 00 c0 	movzbl 0xc00088c6,%eax
c0002bd7:	c3                   	ret    
c0002bd8:	90                   	nop
c0002bd9:	8d b4 26 00 00 00 00 	lea    0x0(%esi,%eiz,1),%esi

c0002be0 <kkybrd_ignore_resend>:
c0002be0:	c6 05 c1 88 00 c0 00 	movb   $0x0,0xc00088c1
c0002be7:	c3                   	ret    
c0002be8:	90                   	nop
c0002be9:	8d b4 26 00 00 00 00 	lea    0x0(%esi,%eiz,1),%esi

c0002bf0 <kkybrd_check_resend>:
c0002bf0:	0f b6 05 c1 88 00 c0 	movzbl 0xc00088c1,%eax
c0002bf7:	c3                   	ret    
c0002bf8:	90                   	nop
c0002bf9:	8d b4 26 00 00 00 00 	lea    0x0(%esi,%eiz,1),%esi

c0002c00 <kkybrd_get_diagnostic_res>:
c0002c00:	0f b6 05 c2 88 00 c0 	movzbl 0xc00088c2,%eax
c0002c07:	c3                   	ret    
c0002c08:	90                   	nop
c0002c09:	8d b4 26 00 00 00 00 	lea    0x0(%esi,%eiz,1),%esi

c0002c10 <kkybrd_get_bat_res>:
c0002c10:	0f b6 05 c3 88 00 c0 	movzbl 0xc00088c3,%eax
c0002c17:	c3                   	ret    
c0002c18:	90                   	nop
c0002c19:	8d b4 26 00 00 00 00 	lea    0x0(%esi,%eiz,1),%esi

c0002c20 <kkybrd_get_last_scan>:
c0002c20:	0f b6 05 ca 88 00 c0 	movzbl 0xc00088ca,%eax
c0002c27:	c3                   	ret    
c0002c28:	90                   	nop
c0002c29:	8d b4 26 00 00 00 00 	lea    0x0(%esi,%eiz,1),%esi

c0002c30 <kkybrd_set_leds>:
c0002c30:	53                   	push   %ebx
c0002c31:	bb 00 00 00 00       	mov    $0x0,%ebx
c0002c36:	83 ec 14             	sub    $0x14,%esp
c0002c39:	0f b6 44 24 1c       	movzbl 0x1c(%esp),%eax
c0002c3e:	83 c8 04             	or     $0x4,%eax
c0002c41:	80 7c 24 20 00       	cmpb   $0x0,0x20(%esp)
c0002c46:	68 ed 00 00 00       	push   $0xed
c0002c4b:	0f 45 d8             	cmovne %eax,%ebx
c0002c4e:	e8 bd fc ff ff       	call   c0002910 <kybrd_enc_send_cmd>
c0002c53:	0f b6 c3             	movzbl %bl,%eax
c0002c56:	89 44 24 20          	mov    %eax,0x20(%esp)
c0002c5a:	83 c4 18             	add    $0x18,%esp
c0002c5d:	5b                   	pop    %ebx
c0002c5e:	e9 ad fc ff ff       	jmp    c0002910 <kybrd_enc_send_cmd>
c0002c63:	8d b6 00 00 00 00    	lea    0x0(%esi),%esi
c0002c69:	8d bc 27 00 00 00 00 	lea    0x0(%edi,%eiz,1),%edi

c0002c70 <kkybrd_get_last_key>:
c0002c70:	0f be 15 ca 88 00 c0 	movsbl 0xc00088ca,%edx
c0002c77:	b8 12 40 00 00       	mov    $0x4012,%eax
c0002c7c:	84 d2                	test   %dl,%dl
c0002c7e:	75 10                	jne    c0002c90 <kkybrd_get_last_key+0x20>
c0002c80:	f3 c3                	repz ret 
c0002c82:	8d b4 26 00 00 00 00 	lea    0x0(%esi,%eiz,1),%esi
c0002c89:	8d bc 27 00 00 00 00 	lea    0x0(%edi,%eiz,1),%edi
c0002c90:	8b 04 95 40 42 00 c0 	mov    -0x3fffbdc0(,%edx,4),%eax
c0002c97:	c3                   	ret    
c0002c98:	90                   	nop
c0002c99:	8d b4 26 00 00 00 00 	lea    0x0(%esi,%eiz,1),%esi

c0002ca0 <kkybrd_discard_last_key>:
c0002ca0:	c6 05 ca 88 00 c0 00 	movb   $0x0,0xc00088ca
c0002ca7:	c3                   	ret    
c0002ca8:	90                   	nop
c0002ca9:	8d b4 26 00 00 00 00 	lea    0x0(%esi,%eiz,1),%esi

c0002cb0 <kkybrd_key_to_ascii>:
c0002cb0:	53                   	push   %ebx
c0002cb1:	8b 44 24 08          	mov    0x8(%esp),%eax
c0002cb5:	84 c0                	test   %al,%al
c0002cb7:	0f 88 93 00 00 00    	js     c0002d50 <kkybrd_key_to_ascii+0xa0>
c0002cbd:	80 3d c6 88 00 c0 00 	cmpb   $0x0,0xc00088c6
c0002cc4:	74 3a                	je     c0002d00 <kkybrd_key_to_ascii+0x50>
c0002cc6:	8d 58 9f             	lea    -0x61(%eax),%ebx
c0002cc9:	8d 50 e0             	lea    -0x20(%eax),%edx
c0002ccc:	89 c1                	mov    %eax,%ecx
c0002cce:	80 fb 19             	cmp    $0x19,%bl
c0002cd1:	0f 46 ca             	cmovbe %edx,%ecx
c0002cd4:	80 3d c7 88 00 c0 00 	cmpb   $0x0,0xc00088c7
c0002cdb:	75 43                	jne    c0002d20 <kkybrd_key_to_ascii+0x70>
c0002cdd:	8d 41 d0             	lea    -0x30(%ecx),%eax
c0002ce0:	3c 09                	cmp    $0x9,%al
c0002ce2:	77 4c                	ja     c0002d30 <kkybrd_key_to_ascii+0x80>
c0002ce4:	83 e9 31             	sub    $0x31,%ecx
c0002ce7:	80 f9 08             	cmp    $0x8,%cl
c0002cea:	0f 87 30 01 00 00    	ja     c0002e20 <kkybrd_key_to_ascii+0x170>
c0002cf0:	0f b6 c1             	movzbl %cl,%eax
c0002cf3:	ff 24 85 20 41 00 c0 	jmp    *-0x3fffbee0(,%eax,4)
c0002cfa:	8d b6 00 00 00 00    	lea    0x0(%esi),%esi
c0002d00:	80 3d c7 88 00 c0 00 	cmpb   $0x0,0xc00088c7
c0002d07:	74 0c                	je     c0002d15 <kkybrd_key_to_ascii+0x65>
c0002d09:	8d 50 9f             	lea    -0x61(%eax),%edx
c0002d0c:	80 fa 19             	cmp    $0x19,%dl
c0002d0f:	0f 86 19 01 00 00    	jbe    c0002e2e <kkybrd_key_to_ascii+0x17e>
c0002d15:	5b                   	pop    %ebx
c0002d16:	c3                   	ret    
c0002d17:	89 f6                	mov    %esi,%esi
c0002d19:	8d bc 27 00 00 00 00 	lea    0x0(%edi,%eiz,1),%edi
c0002d20:	89 c8                	mov    %ecx,%eax
c0002d22:	5b                   	pop    %ebx
c0002d23:	c3                   	ret    
c0002d24:	8d b6 00 00 00 00    	lea    0x0(%esi),%esi
c0002d2a:	8d bf 00 00 00 00    	lea    0x0(%edi),%edi
c0002d30:	8d 41 d9             	lea    -0x27(%ecx),%eax
c0002d33:	3c 39                	cmp    $0x39,%al
c0002d35:	77 e9                	ja     c0002d20 <kkybrd_key_to_ascii+0x70>
c0002d37:	0f b6 c0             	movzbl %al,%eax
c0002d3a:	ff 24 85 44 41 00 c0 	jmp    *-0x3fffbebc(,%eax,4)
c0002d41:	eb 0d                	jmp    c0002d50 <kkybrd_key_to_ascii+0xa0>
c0002d43:	90                   	nop
c0002d44:	90                   	nop
c0002d45:	90                   	nop
c0002d46:	90                   	nop
c0002d47:	90                   	nop
c0002d48:	90                   	nop
c0002d49:	90                   	nop
c0002d4a:	90                   	nop
c0002d4b:	90                   	nop
c0002d4c:	90                   	nop
c0002d4d:	90                   	nop
c0002d4e:	90                   	nop
c0002d4f:	90                   	nop
c0002d50:	31 c0                	xor    %eax,%eax
c0002d52:	5b                   	pop    %ebx
c0002d53:	c3                   	ret    
c0002d54:	8d b6 00 00 00 00    	lea    0x0(%esi),%esi
c0002d5a:	8d bf 00 00 00 00    	lea    0x0(%edi),%edi
c0002d60:	b8 21 00 00 00       	mov    $0x21,%eax
c0002d65:	5b                   	pop    %ebx
c0002d66:	c3                   	ret    
c0002d67:	89 f6                	mov    %esi,%esi
c0002d69:	8d bc 27 00 00 00 00 	lea    0x0(%edi,%eiz,1),%edi
c0002d70:	b8 26 00 00 00       	mov    $0x26,%eax
c0002d75:	5b                   	pop    %ebx
c0002d76:	c3                   	ret    
c0002d77:	89 f6                	mov    %esi,%esi
c0002d79:	8d bc 27 00 00 00 00 	lea    0x0(%edi,%eiz,1),%edi
c0002d80:	b8 5e 00 00 00       	mov    $0x5e,%eax
c0002d85:	5b                   	pop    %ebx
c0002d86:	c3                   	ret    
c0002d87:	89 f6                	mov    %esi,%esi
c0002d89:	8d bc 27 00 00 00 00 	lea    0x0(%edi,%eiz,1),%edi
c0002d90:	b8 25 00 00 00       	mov    $0x25,%eax
c0002d95:	5b                   	pop    %ebx
c0002d96:	c3                   	ret    
c0002d97:	89 f6                	mov    %esi,%esi
c0002d99:	8d bc 27 00 00 00 00 	lea    0x0(%edi,%eiz,1),%edi
c0002da0:	b8 23 00 00 00       	mov    $0x23,%eax
c0002da5:	5b                   	pop    %ebx
c0002da6:	c3                   	ret    
c0002da7:	89 f6                	mov    %esi,%esi
c0002da9:	8d bc 27 00 00 00 00 	lea    0x0(%edi,%eiz,1),%edi
c0002db0:	b8 2a 00 00 00       	mov    $0x2a,%eax
c0002db5:	5b                   	pop    %ebx
c0002db6:	c3                   	ret    
c0002db7:	89 f6                	mov    %esi,%esi
c0002db9:	8d bc 27 00 00 00 00 	lea    0x0(%edi,%eiz,1),%edi
c0002dc0:	b8 40 00 00 00       	mov    $0x40,%eax
c0002dc5:	5b                   	pop    %ebx
c0002dc6:	c3                   	ret    
c0002dc7:	b8 3e 00 00 00       	mov    $0x3e,%eax
c0002dcc:	5b                   	pop    %ebx
c0002dcd:	c3                   	ret    
c0002dce:	b8 3f 00 00 00       	mov    $0x3f,%eax
c0002dd3:	5b                   	pop    %ebx
c0002dd4:	c3                   	ret    
c0002dd5:	b8 3d 00 00 00       	mov    $0x3d,%eax
c0002dda:	5b                   	pop    %ebx
c0002ddb:	c3                   	ret    
c0002ddc:	b8 22 00 00 00       	mov    $0x22,%eax
c0002de1:	5b                   	pop    %ebx
c0002de2:	c3                   	ret    
c0002de3:	b8 7e 00 00 00       	mov    $0x7e,%eax
c0002de8:	5b                   	pop    %ebx
c0002de9:	c3                   	ret    
c0002dea:	b8 5f 00 00 00       	mov    $0x5f,%eax
c0002def:	5b                   	pop    %ebx
c0002df0:	c3                   	ret    
c0002df1:	b8 3c 00 00 00       	mov    $0x3c,%eax
c0002df6:	5b                   	pop    %ebx
c0002df7:	c3                   	ret    
c0002df8:	b8 7d 00 00 00       	mov    $0x7d,%eax
c0002dfd:	5b                   	pop    %ebx
c0002dfe:	c3                   	ret    
c0002dff:	b8 7c 00 00 00       	mov    $0x7c,%eax
c0002e04:	5b                   	pop    %ebx
c0002e05:	c3                   	ret    
c0002e06:	b8 7b 00 00 00       	mov    $0x7b,%eax
c0002e0b:	5b                   	pop    %ebx
c0002e0c:	c3                   	ret    
c0002e0d:	b8 3a 00 00 00       	mov    $0x3a,%eax
c0002e12:	5b                   	pop    %ebx
c0002e13:	c3                   	ret    
c0002e14:	8d b6 00 00 00 00    	lea    0x0(%esi),%esi
c0002e1a:	8d bf 00 00 00 00    	lea    0x0(%edi),%edi
c0002e20:	b8 29 00 00 00       	mov    $0x29,%eax
c0002e25:	5b                   	pop    %ebx
c0002e26:	c3                   	ret    
c0002e27:	b8 28 00 00 00       	mov    $0x28,%eax
c0002e2c:	5b                   	pop    %ebx
c0002e2d:	c3                   	ret    
c0002e2e:	83 e8 20             	sub    $0x20,%eax
c0002e31:	5b                   	pop    %ebx
c0002e32:	c3                   	ret    
c0002e33:	8d b6 00 00 00 00    	lea    0x0(%esi),%esi
c0002e39:	8d bc 27 00 00 00 00 	lea    0x0(%edi,%eiz,1),%edi

c0002e40 <kkybrd_disable>:
c0002e40:	83 ec 18             	sub    $0x18,%esp
c0002e43:	68 ad 00 00 00       	push   $0xad
c0002e48:	e8 73 fa ff ff       	call   c00028c0 <kybrd_ctrl_send_cmd>
c0002e4d:	c6 05 c0 88 00 c0 01 	movb   $0x1,0xc00088c0
c0002e54:	83 c4 1c             	add    $0x1c,%esp
c0002e57:	c3                   	ret    
c0002e58:	90                   	nop
c0002e59:	8d b4 26 00 00 00 00 	lea    0x0(%esi,%eiz,1),%esi

c0002e60 <kkybrd_enable>:
c0002e60:	83 ec 18             	sub    $0x18,%esp
c0002e63:	68 ae 00 00 00       	push   $0xae
c0002e68:	e8 53 fa ff ff       	call   c00028c0 <kybrd_ctrl_send_cmd>
c0002e6d:	c6 05 c0 88 00 c0 00 	movb   $0x0,0xc00088c0
c0002e74:	83 c4 1c             	add    $0x1c,%esp
c0002e77:	c3                   	ret    
c0002e78:	90                   	nop
c0002e79:	8d b4 26 00 00 00 00 	lea    0x0(%esi,%eiz,1),%esi

c0002e80 <kkybrd_is_disabled>:
c0002e80:	0f b6 05 c0 88 00 c0 	movzbl 0xc00088c0,%eax
c0002e87:	c3                   	ret    
c0002e88:	90                   	nop
c0002e89:	8d b4 26 00 00 00 00 	lea    0x0(%esi,%eiz,1),%esi

c0002e90 <kkybrd_reset_system>:
c0002e90:	83 ec 18             	sub    $0x18,%esp
c0002e93:	68 d1 00 00 00       	push   $0xd1
c0002e98:	e8 23 fa ff ff       	call   c00028c0 <kybrd_ctrl_send_cmd>
c0002e9d:	c7 04 24 fe 00 00 00 	movl   $0xfe,(%esp)
c0002ea4:	e8 67 fa ff ff       	call   c0002910 <kybrd_enc_send_cmd>
c0002ea9:	83 c4 1c             	add    $0x1c,%esp
c0002eac:	c3                   	ret    
c0002ead:	8d 76 00             	lea    0x0(%esi),%esi

c0002eb0 <kkybrd_self_test>:
c0002eb0:	83 ec 18             	sub    $0x18,%esp
c0002eb3:	68 aa 00 00 00       	push   $0xaa
c0002eb8:	e8 03 fa ff ff       	call   c00028c0 <kybrd_ctrl_send_cmd>
c0002ebd:	83 c4 10             	add    $0x10,%esp
c0002ec0:	83 ec 0c             	sub    $0xc,%esp
c0002ec3:	6a 64                	push   $0x64
c0002ec5:	e8 d6 e2 ff ff       	call   c00011a0 <inportb>
c0002eca:	83 c4 10             	add    $0x10,%esp
c0002ecd:	a8 01                	test   $0x1,%al
c0002ecf:	74 ef                	je     c0002ec0 <kkybrd_self_test+0x10>
c0002ed1:	83 ec 0c             	sub    $0xc,%esp
c0002ed4:	6a 60                	push   $0x60
c0002ed6:	e8 c5 e2 ff ff       	call   c00011a0 <inportb>
c0002edb:	3c 55                	cmp    $0x55,%al
c0002edd:	0f 94 c0             	sete   %al
c0002ee0:	83 c4 1c             	add    $0x1c,%esp
c0002ee3:	c3                   	ret    
c0002ee4:	8d b6 00 00 00 00    	lea    0x0(%esi),%esi
c0002eea:	8d bf 00 00 00 00    	lea    0x0(%edi),%edi

c0002ef0 <kkybrd_install>:
c0002ef0:	83 ec 14             	sub    $0x14,%esp
c0002ef3:	68 47 0e 00 c0       	push   $0xc0000e47
c0002ef8:	ff 74 24 1c          	pushl  0x1c(%esp)
c0002efc:	e8 ff e2 ff ff       	call   c0001200 <setvect>
c0002f01:	c7 04 24 ed 00 00 00 	movl   $0xed,(%esp)
c0002f08:	c6 05 c3 88 00 c0 01 	movb   $0x1,0xc00088c3
c0002f0f:	c6 05 ca 88 00 c0 00 	movb   $0x0,0xc00088ca
c0002f16:	c6 05 c7 88 00 c0 00 	movb   $0x0,0xc00088c7
c0002f1d:	c6 05 c8 88 00 c0 00 	movb   $0x0,0xc00088c8
c0002f24:	c6 05 c9 88 00 c0 00 	movb   $0x0,0xc00088c9
c0002f2b:	e8 e0 f9 ff ff       	call   c0002910 <kybrd_enc_send_cmd>
c0002f30:	c7 04 24 00 00 00 00 	movl   $0x0,(%esp)
c0002f37:	e8 d4 f9 ff ff       	call   c0002910 <kybrd_enc_send_cmd>
c0002f3c:	c6 05 c4 88 00 c0 00 	movb   $0x0,0xc00088c4
c0002f43:	c6 05 c5 88 00 c0 00 	movb   $0x0,0xc00088c5
c0002f4a:	c6 05 c6 88 00 c0 00 	movb   $0x0,0xc00088c6
c0002f51:	83 c4 1c             	add    $0x1c,%esp
c0002f54:	c3                   	ret    
c0002f55:	66 90                	xchg   %ax,%ax
c0002f57:	66 90                	xchg   %ax,%ax
c0002f59:	66 90                	xchg   %ax,%ax
c0002f5b:	66 90                	xchg   %ax,%ax
c0002f5d:	66 90                	xchg   %ax,%ax
c0002f5f:	90                   	nop

c0002f60 <flpydsk_initialize_dma>:
c0002f60:	83 ec 14             	sub    $0x14,%esp
c0002f63:	6a 06                	push   $0x6
c0002f65:	6a 0a                	push   $0xa
c0002f67:	e8 54 e2 ff ff       	call   c00011c0 <outportb>
c0002f6c:	58                   	pop    %eax
c0002f6d:	5a                   	pop    %edx
c0002f6e:	68 ff 00 00 00       	push   $0xff
c0002f73:	68 d8 00 00 00       	push   $0xd8
c0002f78:	e8 43 e2 ff ff       	call   c00011c0 <outportb>
c0002f7d:	59                   	pop    %ecx
c0002f7e:	58                   	pop    %eax
c0002f7f:	6a 00                	push   $0x0
c0002f81:	6a 04                	push   $0x4
c0002f83:	e8 38 e2 ff ff       	call   c00011c0 <outportb>
c0002f88:	58                   	pop    %eax
c0002f89:	5a                   	pop    %edx
c0002f8a:	6a 10                	push   $0x10
c0002f8c:	6a 04                	push   $0x4
c0002f8e:	e8 2d e2 ff ff       	call   c00011c0 <outportb>
c0002f93:	59                   	pop    %ecx
c0002f94:	58                   	pop    %eax
c0002f95:	68 ff 00 00 00       	push   $0xff
c0002f9a:	68 d8 00 00 00       	push   $0xd8
c0002f9f:	e8 1c e2 ff ff       	call   c00011c0 <outportb>
c0002fa4:	58                   	pop    %eax
c0002fa5:	5a                   	pop    %edx
c0002fa6:	68 ff 00 00 00       	push   $0xff
c0002fab:	6a 05                	push   $0x5
c0002fad:	e8 0e e2 ff ff       	call   c00011c0 <outportb>
c0002fb2:	59                   	pop    %ecx
c0002fb3:	58                   	pop    %eax
c0002fb4:	6a 23                	push   $0x23
c0002fb6:	6a 05                	push   $0x5
c0002fb8:	e8 03 e2 ff ff       	call   c00011c0 <outportb>
c0002fbd:	58                   	pop    %eax
c0002fbe:	5a                   	pop    %edx
c0002fbf:	6a 00                	push   $0x0
c0002fc1:	68 80 00 00 00       	push   $0x80
c0002fc6:	e8 f5 e1 ff ff       	call   c00011c0 <outportb>
c0002fcb:	59                   	pop    %ecx
c0002fcc:	58                   	pop    %eax
c0002fcd:	6a 02                	push   $0x2
c0002fcf:	6a 0a                	push   $0xa
c0002fd1:	e8 ea e1 ff ff       	call   c00011c0 <outportb>
c0002fd6:	83 c4 1c             	add    $0x1c,%esp
c0002fd9:	c3                   	ret    
c0002fda:	8d b6 00 00 00 00    	lea    0x0(%esi),%esi

c0002fe0 <flpydsk_dma_read>:
c0002fe0:	83 ec 14             	sub    $0x14,%esp
c0002fe3:	6a 06                	push   $0x6
c0002fe5:	6a 0a                	push   $0xa
c0002fe7:	e8 d4 e1 ff ff       	call   c00011c0 <outportb>
c0002fec:	58                   	pop    %eax
c0002fed:	5a                   	pop    %edx
c0002fee:	6a 56                	push   $0x56
c0002ff0:	6a 0b                	push   $0xb
c0002ff2:	e8 c9 e1 ff ff       	call   c00011c0 <outportb>
c0002ff7:	59                   	pop    %ecx
c0002ff8:	58                   	pop    %eax
c0002ff9:	6a 02                	push   $0x2
c0002ffb:	6a 0a                	push   $0xa
c0002ffd:	e8 be e1 ff ff       	call   c00011c0 <outportb>
c0003002:	83 c4 1c             	add    $0x1c,%esp
c0003005:	c3                   	ret    
c0003006:	8d 76 00             	lea    0x0(%esi),%esi
c0003009:	8d bc 27 00 00 00 00 	lea    0x0(%edi,%eiz,1),%edi

c0003010 <flpydsk_dma_write>:
c0003010:	83 ec 14             	sub    $0x14,%esp
c0003013:	6a 06                	push   $0x6
c0003015:	6a 0a                	push   $0xa
c0003017:	e8 a4 e1 ff ff       	call   c00011c0 <outportb>
c000301c:	58                   	pop    %eax
c000301d:	5a                   	pop    %edx
c000301e:	6a 5a                	push   $0x5a
c0003020:	6a 0b                	push   $0xb
c0003022:	e8 99 e1 ff ff       	call   c00011c0 <outportb>
c0003027:	59                   	pop    %ecx
c0003028:	58                   	pop    %eax
c0003029:	6a 02                	push   $0x2
c000302b:	6a 0a                	push   $0xa
c000302d:	e8 8e e1 ff ff       	call   c00011c0 <outportb>
c0003032:	83 c4 1c             	add    $0x1c,%esp
c0003035:	c3                   	ret    
c0003036:	8d 76 00             	lea    0x0(%esi),%esi
c0003039:	8d bc 27 00 00 00 00 	lea    0x0(%edi,%eiz,1),%edi

c0003040 <flpydsk_read_status>:
c0003040:	83 ec 18             	sub    $0x18,%esp
c0003043:	68 f4 03 00 00       	push   $0x3f4
c0003048:	e8 53 e1 ff ff       	call   c00011a0 <inportb>
c000304d:	83 c4 1c             	add    $0x1c,%esp
c0003050:	c3                   	ret    
c0003051:	eb 0d                	jmp    c0003060 <flpydsk_write_dor>
c0003053:	90                   	nop
c0003054:	90                   	nop
c0003055:	90                   	nop
c0003056:	90                   	nop
c0003057:	90                   	nop
c0003058:	90                   	nop
c0003059:	90                   	nop
c000305a:	90                   	nop
c000305b:	90                   	nop
c000305c:	90                   	nop
c000305d:	90                   	nop
c000305e:	90                   	nop
c000305f:	90                   	nop

c0003060 <flpydsk_write_dor>:
c0003060:	83 ec 14             	sub    $0x14,%esp
c0003063:	0f b6 44 24 18       	movzbl 0x18(%esp),%eax
c0003068:	50                   	push   %eax
c0003069:	68 f2 03 00 00       	push   $0x3f2
c000306e:	e8 4d e1 ff ff       	call   c00011c0 <outportb>
c0003073:	83 c4 1c             	add    $0x1c,%esp
c0003076:	c3                   	ret    
c0003077:	89 f6                	mov    %esi,%esi
c0003079:	8d bc 27 00 00 00 00 	lea    0x0(%edi,%eiz,1),%edi

c0003080 <flpydsk_send_command>:
c0003080:	56                   	push   %esi
c0003081:	53                   	push   %ebx
c0003082:	bb f4 01 00 00       	mov    $0x1f4,%ebx
c0003087:	83 ec 04             	sub    $0x4,%esp
c000308a:	8b 74 24 10          	mov    0x10(%esp),%esi
c000308e:	eb 05                	jmp    c0003095 <flpydsk_send_command+0x15>
c0003090:	83 eb 01             	sub    $0x1,%ebx
c0003093:	74 2a                	je     c00030bf <flpydsk_send_command+0x3f>
c0003095:	83 ec 0c             	sub    $0xc,%esp
c0003098:	68 f4 03 00 00       	push   $0x3f4
c000309d:	e8 fe e0 ff ff       	call   c00011a0 <inportb>
c00030a2:	83 c4 10             	add    $0x10,%esp
c00030a5:	84 c0                	test   %al,%al
c00030a7:	79 e7                	jns    c0003090 <flpydsk_send_command+0x10>
c00030a9:	89 f0                	mov    %esi,%eax
c00030ab:	83 ec 08             	sub    $0x8,%esp
c00030ae:	0f b6 f0             	movzbl %al,%esi
c00030b1:	56                   	push   %esi
c00030b2:	68 f5 03 00 00       	push   $0x3f5
c00030b7:	e8 04 e1 ff ff       	call   c00011c0 <outportb>
c00030bc:	83 c4 10             	add    $0x10,%esp
c00030bf:	83 c4 04             	add    $0x4,%esp
c00030c2:	5b                   	pop    %ebx
c00030c3:	5e                   	pop    %esi
c00030c4:	c3                   	ret    
c00030c5:	8d 74 26 00          	lea    0x0(%esi,%eiz,1),%esi
c00030c9:	8d bc 27 00 00 00 00 	lea    0x0(%edi,%eiz,1),%edi

c00030d0 <flpydsk_read_data>:
c00030d0:	53                   	push   %ebx
c00030d1:	bb f4 01 00 00       	mov    $0x1f4,%ebx
c00030d6:	83 ec 08             	sub    $0x8,%esp
c00030d9:	eb 0a                	jmp    c00030e5 <flpydsk_read_data+0x15>
c00030db:	90                   	nop
c00030dc:	8d 74 26 00          	lea    0x0(%esi,%eiz,1),%esi
c00030e0:	83 eb 01             	sub    $0x1,%ebx
c00030e3:	74 2b                	je     c0003110 <flpydsk_read_data+0x40>
c00030e5:	83 ec 0c             	sub    $0xc,%esp
c00030e8:	68 f4 03 00 00       	push   $0x3f4
c00030ed:	e8 ae e0 ff ff       	call   c00011a0 <inportb>
c00030f2:	83 c4 10             	add    $0x10,%esp
c00030f5:	84 c0                	test   %al,%al
c00030f7:	79 e7                	jns    c00030e0 <flpydsk_read_data+0x10>
c00030f9:	83 ec 0c             	sub    $0xc,%esp
c00030fc:	68 f5 03 00 00       	push   $0x3f5
c0003101:	e8 9a e0 ff ff       	call   c00011a0 <inportb>
c0003106:	83 c4 10             	add    $0x10,%esp
c0003109:	83 c4 08             	add    $0x8,%esp
c000310c:	5b                   	pop    %ebx
c000310d:	c3                   	ret    
c000310e:	66 90                	xchg   %ax,%ax
c0003110:	83 c4 08             	add    $0x8,%esp
c0003113:	31 c0                	xor    %eax,%eax
c0003115:	5b                   	pop    %ebx
c0003116:	c3                   	ret    
c0003117:	89 f6                	mov    %esi,%esi
c0003119:	8d bc 27 00 00 00 00 	lea    0x0(%edi,%eiz,1),%edi

c0003120 <flpydsk_write_ccr>:
c0003120:	83 ec 14             	sub    $0x14,%esp
c0003123:	0f b6 44 24 18       	movzbl 0x18(%esp),%eax
c0003128:	50                   	push   %eax
c0003129:	68 f7 03 00 00       	push   $0x3f7
c000312e:	e8 8d e0 ff ff       	call   c00011c0 <outportb>
c0003133:	83 c4 1c             	add    $0x1c,%esp
c0003136:	c3                   	ret    
c0003137:	89 f6                	mov    %esi,%esi
c0003139:	8d bc 27 00 00 00 00 	lea    0x0(%edi,%eiz,1),%edi

c0003140 <i86_flpy_irq>:
c0003140:	83 ec 18             	sub    $0x18,%esp
c0003143:	c6 05 cb 88 00 c0 01 	movb   $0x1,0xc00088cb
c000314a:	6a 06                	push   $0x6
c000314c:	e8 df df ff ff       	call   c0001130 <interruptdone>
c0003151:	83 c4 1c             	add    $0x1c,%esp
c0003154:	c3                   	ret    
c0003155:	8d 74 26 00          	lea    0x0(%esi,%eiz,1),%esi
c0003159:	8d bc 27 00 00 00 00 	lea    0x0(%edi,%eiz,1),%edi

c0003160 <flpydsk_check_int>:
c0003160:	83 ec 18             	sub    $0x18,%esp
c0003163:	6a 08                	push   $0x8
c0003165:	e8 16 ff ff ff       	call   c0003080 <flpydsk_send_command>
c000316a:	e8 61 ff ff ff       	call   c00030d0 <flpydsk_read_data>
c000316f:	8b 54 24 20          	mov    0x20(%esp),%edx
c0003173:	0f b6 c0             	movzbl %al,%eax
c0003176:	89 02                	mov    %eax,(%edx)
c0003178:	e8 53 ff ff ff       	call   c00030d0 <flpydsk_read_data>
c000317d:	8b 54 24 24          	mov    0x24(%esp),%edx
c0003181:	0f b6 c0             	movzbl %al,%eax
c0003184:	89 02                	mov    %eax,(%edx)
c0003186:	83 c4 1c             	add    $0x1c,%esp
c0003189:	c3                   	ret    
c000318a:	8d b6 00 00 00 00    	lea    0x0(%esi),%esi

c0003190 <flpydsk_control_motor>:
c0003190:	83 ec 0c             	sub    $0xc,%esp
c0003193:	0f b6 05 cc 88 00 c0 	movzbl 0xc00088cc,%eax
c000319a:	8b 54 24 10          	mov    0x10(%esp),%edx
c000319e:	3c 03                	cmp    $0x3,%al
c00031a0:	77 5e                	ja     c0003200 <flpydsk_control_motor+0x70>
c00031a2:	84 d2                	test   %dl,%dl
c00031a4:	75 2a                	jne    c00031d0 <flpydsk_control_motor+0x40>
c00031a6:	83 ec 08             	sub    $0x8,%esp
c00031a9:	6a 04                	push   $0x4
c00031ab:	68 f2 03 00 00       	push   $0x3f2
c00031b0:	e8 0b e0 ff ff       	call   c00011c0 <outportb>
c00031b5:	83 c4 10             	add    $0x10,%esp
c00031b8:	c7 44 24 10 14 00 00 	movl   $0x14,0x10(%esp)
c00031bf:	00 
c00031c0:	83 c4 0c             	add    $0xc,%esp
c00031c3:	e9 e8 d7 ff ff       	jmp    c00009b0 <sleep>
c00031c8:	90                   	nop
c00031c9:	8d b4 26 00 00 00 00 	lea    0x0(%esi,%eiz,1),%esi
c00031d0:	89 c2                	mov    %eax,%edx
c00031d2:	83 ec 08             	sub    $0x8,%esp
c00031d5:	83 ca 0c             	or     $0xc,%edx
c00031d8:	0a 14 85 8c 43 00 c0 	or     -0x3fffbc74(,%eax,4),%dl
c00031df:	0f b6 c2             	movzbl %dl,%eax
c00031e2:	50                   	push   %eax
c00031e3:	68 f2 03 00 00       	push   $0x3f2
c00031e8:	e8 d3 df ff ff       	call   c00011c0 <outportb>
c00031ed:	83 c4 10             	add    $0x10,%esp
c00031f0:	c7 44 24 10 14 00 00 	movl   $0x14,0x10(%esp)
c00031f7:	00 
c00031f8:	83 c4 0c             	add    $0xc,%esp
c00031fb:	e9 b0 d7 ff ff       	jmp    c00009b0 <sleep>
c0003200:	83 c4 0c             	add    $0xc,%esp
c0003203:	c3                   	ret    
c0003204:	8d b6 00 00 00 00    	lea    0x0(%esi),%esi
c000320a:	8d bf 00 00 00 00    	lea    0x0(%edi),%edi

c0003210 <flpydsk_drive_data>:
c0003210:	55                   	push   %ebp
c0003211:	57                   	push   %edi
c0003212:	56                   	push   %esi
c0003213:	53                   	push   %ebx
c0003214:	83 ec 18             	sub    $0x18,%esp
c0003217:	8b 5c 24 2c          	mov    0x2c(%esp),%ebx
c000321b:	8b 7c 24 34          	mov    0x34(%esp),%edi
c000321f:	8b 6c 24 38          	mov    0x38(%esp),%ebp
c0003223:	8b 74 24 30          	mov    0x30(%esp),%esi
c0003227:	6a 03                	push   $0x3
c0003229:	c1 e3 04             	shl    $0x4,%ebx
c000322c:	83 e7 0f             	and    $0xf,%edi
c000322f:	0f b6 db             	movzbl %bl,%ebx
c0003232:	01 f6                	add    %esi,%esi
c0003234:	09 fb                	or     %edi,%ebx
c0003236:	e8 45 fe ff ff       	call   c0003080 <flpydsk_send_command>
c000323b:	89 1c 24             	mov    %ebx,(%esp)
c000323e:	e8 3d fe ff ff       	call   c0003080 <flpydsk_send_command>
c0003243:	89 e8                	mov    %ebp,%eax
c0003245:	83 f0 01             	xor    $0x1,%eax
c0003248:	0f b6 c0             	movzbl %al,%eax
c000324b:	09 c6                	or     %eax,%esi
c000324d:	0f 94 c0             	sete   %al
c0003250:	0f b6 c0             	movzbl %al,%eax
c0003253:	89 44 24 30          	mov    %eax,0x30(%esp)
c0003257:	83 c4 1c             	add    $0x1c,%esp
c000325a:	5b                   	pop    %ebx
c000325b:	5e                   	pop    %esi
c000325c:	5f                   	pop    %edi
c000325d:	5d                   	pop    %ebp
c000325e:	e9 1d fe ff ff       	jmp    c0003080 <flpydsk_send_command>
c0003263:	8d b6 00 00 00 00    	lea    0x0(%esi),%esi
c0003269:	8d bc 27 00 00 00 00 	lea    0x0(%edi,%eiz,1),%edi

c0003270 <flpydsk_calibrate>:
c0003270:	55                   	push   %ebp
c0003271:	57                   	push   %edi
c0003272:	56                   	push   %esi
c0003273:	53                   	push   %ebx
c0003274:	83 ec 1c             	sub    $0x1c,%esp
c0003277:	8b 74 24 30          	mov    0x30(%esp),%esi
c000327b:	83 fe 03             	cmp    $0x3,%esi
c000327e:	0f 87 99 00 00 00    	ja     c000331d <flpydsk_calibrate+0xad>
c0003284:	83 ec 0c             	sub    $0xc,%esp
c0003287:	bb 0a 00 00 00       	mov    $0xa,%ebx
c000328c:	6a 01                	push   $0x1
c000328e:	e8 fd fe ff ff       	call   c0003190 <flpydsk_control_motor>
c0003293:	83 c4 10             	add    $0x10,%esp
c0003296:	8d 6c 24 0c          	lea    0xc(%esp),%ebp
c000329a:	8d 7c 24 08          	lea    0x8(%esp),%edi
c000329e:	66 90                	xchg   %ax,%ax
c00032a0:	83 ec 0c             	sub    $0xc,%esp
c00032a3:	6a 07                	push   $0x7
c00032a5:	e8 d6 fd ff ff       	call   c0003080 <flpydsk_send_command>
c00032aa:	89 34 24             	mov    %esi,(%esp)
c00032ad:	e8 ce fd ff ff       	call   c0003080 <flpydsk_send_command>
c00032b2:	83 c4 10             	add    $0x10,%esp
c00032b5:	8d 74 26 00          	lea    0x0(%esi,%eiz,1),%esi
c00032b9:	8d bc 27 00 00 00 00 	lea    0x0(%edi,%eiz,1),%edi
c00032c0:	0f b6 05 cb 88 00 c0 	movzbl 0xc00088cb,%eax
c00032c7:	84 c0                	test   %al,%al
c00032c9:	74 f5                	je     c00032c0 <flpydsk_calibrate+0x50>
c00032cb:	83 ec 08             	sub    $0x8,%esp
c00032ce:	c6 05 cb 88 00 c0 00 	movb   $0x0,0xc00088cb
c00032d5:	55                   	push   %ebp
c00032d6:	57                   	push   %edi
c00032d7:	e8 84 fe ff ff       	call   c0003160 <flpydsk_check_int>
c00032dc:	83 c4 10             	add    $0x10,%esp
c00032df:	8b 44 24 0c          	mov    0xc(%esp),%eax
c00032e3:	85 c0                	test   %eax,%eax
c00032e5:	74 1f                	je     c0003306 <flpydsk_calibrate+0x96>
c00032e7:	83 eb 01             	sub    $0x1,%ebx
c00032ea:	75 b4                	jne    c00032a0 <flpydsk_calibrate+0x30>
c00032ec:	83 ec 0c             	sub    $0xc,%esp
c00032ef:	6a 00                	push   $0x0
c00032f1:	e8 9a fe ff ff       	call   c0003190 <flpydsk_control_motor>
c00032f6:	83 c4 10             	add    $0x10,%esp
c00032f9:	b8 ff ff ff ff       	mov    $0xffffffff,%eax
c00032fe:	83 c4 1c             	add    $0x1c,%esp
c0003301:	5b                   	pop    %ebx
c0003302:	5e                   	pop    %esi
c0003303:	5f                   	pop    %edi
c0003304:	5d                   	pop    %ebp
c0003305:	c3                   	ret    
c0003306:	83 ec 0c             	sub    $0xc,%esp
c0003309:	6a 00                	push   $0x0
c000330b:	e8 80 fe ff ff       	call   c0003190 <flpydsk_control_motor>
c0003310:	83 c4 10             	add    $0x10,%esp
c0003313:	31 c0                	xor    %eax,%eax
c0003315:	83 c4 1c             	add    $0x1c,%esp
c0003318:	5b                   	pop    %ebx
c0003319:	5e                   	pop    %esi
c000331a:	5f                   	pop    %edi
c000331b:	5d                   	pop    %ebp
c000331c:	c3                   	ret    
c000331d:	b8 fe ff ff ff       	mov    $0xfffffffe,%eax
c0003322:	eb da                	jmp    c00032fe <flpydsk_calibrate+0x8e>
c0003324:	8d b6 00 00 00 00    	lea    0x0(%esi),%esi
c000332a:	8d bf 00 00 00 00    	lea    0x0(%edi),%edi

c0003330 <flpydsk_disable_controller>:
c0003330:	83 ec 14             	sub    $0x14,%esp
c0003333:	6a 00                	push   $0x0
c0003335:	68 f2 03 00 00       	push   $0x3f2
c000333a:	e8 81 de ff ff       	call   c00011c0 <outportb>
c000333f:	83 c4 1c             	add    $0x1c,%esp
c0003342:	c3                   	ret    
c0003343:	8d b6 00 00 00 00    	lea    0x0(%esi),%esi
c0003349:	8d bc 27 00 00 00 00 	lea    0x0(%edi,%eiz,1),%edi

c0003350 <flpydsk_enable_controller>:
c0003350:	83 ec 14             	sub    $0x14,%esp
c0003353:	6a 0c                	push   $0xc
c0003355:	68 f2 03 00 00       	push   $0x3f2
c000335a:	e8 61 de ff ff       	call   c00011c0 <outportb>
c000335f:	83 c4 1c             	add    $0x1c,%esp
c0003362:	c3                   	ret    
c0003363:	8d b6 00 00 00 00    	lea    0x0(%esi),%esi
c0003369:	8d bc 27 00 00 00 00 	lea    0x0(%edi,%eiz,1),%edi

c0003370 <flpydsk_reset>:
c0003370:	57                   	push   %edi
c0003371:	56                   	push   %esi
c0003372:	53                   	push   %ebx
c0003373:	83 ec 18             	sub    $0x18,%esp
c0003376:	6a 00                	push   $0x0
c0003378:	68 f2 03 00 00       	push   $0x3f2
c000337d:	e8 3e de ff ff       	call   c00011c0 <outportb>
c0003382:	58                   	pop    %eax
c0003383:	5a                   	pop    %edx
c0003384:	6a 0c                	push   $0xc
c0003386:	68 f2 03 00 00       	push   $0x3f2
c000338b:	e8 30 de ff ff       	call   c00011c0 <outportb>
c0003390:	83 c4 10             	add    $0x10,%esp
c0003393:	8d b6 00 00 00 00    	lea    0x0(%esi),%esi
c0003399:	8d bc 27 00 00 00 00 	lea    0x0(%edi,%eiz,1),%edi
c00033a0:	0f b6 05 cb 88 00 c0 	movzbl 0xc00088cb,%eax
c00033a7:	84 c0                	test   %al,%al
c00033a9:	74 f5                	je     c00033a0 <flpydsk_reset+0x30>
c00033ab:	8d 7c 24 0c          	lea    0xc(%esp),%edi
c00033af:	8d 74 24 08          	lea    0x8(%esp),%esi
c00033b3:	c6 05 cb 88 00 c0 00 	movb   $0x0,0xc00088cb
c00033ba:	bb 04 00 00 00       	mov    $0x4,%ebx
c00033bf:	83 ec 08             	sub    $0x8,%esp
c00033c2:	57                   	push   %edi
c00033c3:	56                   	push   %esi
c00033c4:	e8 97 fd ff ff       	call   c0003160 <flpydsk_check_int>
c00033c9:	83 c4 10             	add    $0x10,%esp
c00033cc:	83 eb 01             	sub    $0x1,%ebx
c00033cf:	75 ee                	jne    c00033bf <flpydsk_reset+0x4f>
c00033d1:	83 ec 08             	sub    $0x8,%esp
c00033d4:	6a 00                	push   $0x0
c00033d6:	68 f7 03 00 00       	push   $0x3f7
c00033db:	e8 e0 dd ff ff       	call   c00011c0 <outportb>
c00033e0:	c7 04 24 03 00 00 00 	movl   $0x3,(%esp)
c00033e7:	e8 94 fc ff ff       	call   c0003080 <flpydsk_send_command>
c00033ec:	c7 04 24 30 00 00 00 	movl   $0x30,(%esp)
c00033f3:	e8 88 fc ff ff       	call   c0003080 <flpydsk_send_command>
c00033f8:	c7 04 24 00 00 00 00 	movl   $0x0,(%esp)
c00033ff:	e8 7c fc ff ff       	call   c0003080 <flpydsk_send_command>
c0003404:	0f b6 05 cc 88 00 c0 	movzbl 0xc00088cc,%eax
c000340b:	89 04 24             	mov    %eax,(%esp)
c000340e:	e8 5d fe ff ff       	call   c0003270 <flpydsk_calibrate>
c0003413:	83 c4 20             	add    $0x20,%esp
c0003416:	5b                   	pop    %ebx
c0003417:	5e                   	pop    %esi
c0003418:	5f                   	pop    %edi
c0003419:	c3                   	ret    
c000341a:	8d b6 00 00 00 00    	lea    0x0(%esi),%esi

c0003420 <flpydsk_read_sector_imp>:
c0003420:	57                   	push   %edi
c0003421:	56                   	push   %esi
c0003422:	53                   	push   %ebx
c0003423:	83 ec 10             	sub    $0x10,%esp
c0003426:	8b 7c 24 20          	mov    0x20(%esp),%edi
c000342a:	8b 74 24 24          	mov    0x24(%esp),%esi
c000342e:	8b 5c 24 28          	mov    0x28(%esp),%ebx
c0003432:	e8 a9 fb ff ff       	call   c0002fe0 <flpydsk_dma_read>
c0003437:	83 ec 0c             	sub    $0xc,%esp
c000343a:	68 e6 00 00 00       	push   $0xe6
c000343f:	e8 3c fc ff ff       	call   c0003080 <flpydsk_send_command>
c0003444:	89 f8                	mov    %edi,%eax
c0003446:	0f b6 f8             	movzbl %al,%edi
c0003449:	8d 04 bd 00 00 00 00 	lea    0x0(,%edi,4),%eax
c0003450:	0a 05 cc 88 00 c0    	or     0xc00088cc,%al
c0003456:	0f b6 c0             	movzbl %al,%eax
c0003459:	89 04 24             	mov    %eax,(%esp)
c000345c:	e8 1f fc ff ff       	call   c0003080 <flpydsk_send_command>
c0003461:	89 f0                	mov    %esi,%eax
c0003463:	0f b6 f0             	movzbl %al,%esi
c0003466:	89 34 24             	mov    %esi,(%esp)
c0003469:	0f b6 f3             	movzbl %bl,%esi
c000346c:	83 c3 01             	add    $0x1,%ebx
c000346f:	e8 0c fc ff ff       	call   c0003080 <flpydsk_send_command>
c0003474:	89 3c 24             	mov    %edi,(%esp)
c0003477:	e8 04 fc ff ff       	call   c0003080 <flpydsk_send_command>
c000347c:	89 34 24             	mov    %esi,(%esp)
c000347f:	e8 fc fb ff ff       	call   c0003080 <flpydsk_send_command>
c0003484:	c7 04 24 02 00 00 00 	movl   $0x2,(%esp)
c000348b:	e8 f0 fb ff ff       	call   c0003080 <flpydsk_send_command>
c0003490:	83 fe 10             	cmp    $0x10,%esi
c0003493:	b8 12 00 00 00       	mov    $0x12,%eax
c0003498:	0f 4f d8             	cmovg  %eax,%ebx
c000349b:	0f b6 db             	movzbl %bl,%ebx
c000349e:	89 1c 24             	mov    %ebx,(%esp)
c00034a1:	e8 da fb ff ff       	call   c0003080 <flpydsk_send_command>
c00034a6:	c7 04 24 1b 00 00 00 	movl   $0x1b,(%esp)
c00034ad:	e8 ce fb ff ff       	call   c0003080 <flpydsk_send_command>
c00034b2:	c7 04 24 ff 00 00 00 	movl   $0xff,(%esp)
c00034b9:	e8 c2 fb ff ff       	call   c0003080 <flpydsk_send_command>
c00034be:	83 c4 10             	add    $0x10,%esp
c00034c1:	eb 0d                	jmp    c00034d0 <flpydsk_read_sector_imp+0xb0>
c00034c3:	90                   	nop
c00034c4:	90                   	nop
c00034c5:	90                   	nop
c00034c6:	90                   	nop
c00034c7:	90                   	nop
c00034c8:	90                   	nop
c00034c9:	90                   	nop
c00034ca:	90                   	nop
c00034cb:	90                   	nop
c00034cc:	90                   	nop
c00034cd:	90                   	nop
c00034ce:	90                   	nop
c00034cf:	90                   	nop
c00034d0:	0f b6 05 cb 88 00 c0 	movzbl 0xc00088cb,%eax
c00034d7:	84 c0                	test   %al,%al
c00034d9:	74 f5                	je     c00034d0 <flpydsk_read_sector_imp+0xb0>
c00034db:	c6 05 cb 88 00 c0 00 	movb   $0x0,0xc00088cb
c00034e2:	bb 07 00 00 00       	mov    $0x7,%ebx
c00034e7:	89 f6                	mov    %esi,%esi
c00034e9:	8d bc 27 00 00 00 00 	lea    0x0(%edi,%eiz,1),%edi
c00034f0:	e8 db fb ff ff       	call   c00030d0 <flpydsk_read_data>
c00034f5:	83 eb 01             	sub    $0x1,%ebx
c00034f8:	75 f6                	jne    c00034f0 <flpydsk_read_sector_imp+0xd0>
c00034fa:	83 ec 08             	sub    $0x8,%esp
c00034fd:	8d 44 24 14          	lea    0x14(%esp),%eax
c0003501:	50                   	push   %eax
c0003502:	8d 44 24 14          	lea    0x14(%esp),%eax
c0003506:	50                   	push   %eax
c0003507:	e8 54 fc ff ff       	call   c0003160 <flpydsk_check_int>
c000350c:	83 c4 20             	add    $0x20,%esp
c000350f:	5b                   	pop    %ebx
c0003510:	5e                   	pop    %esi
c0003511:	5f                   	pop    %edi
c0003512:	c3                   	ret    
c0003513:	8d b6 00 00 00 00    	lea    0x0(%esi),%esi
c0003519:	8d bc 27 00 00 00 00 	lea    0x0(%edi,%eiz,1),%edi

c0003520 <flpydsk_seek>:
c0003520:	80 3d cc 88 00 c0 03 	cmpb   $0x3,0xc00088cc
c0003527:	0f 87 a8 00 00 00    	ja     c00035d5 <flpydsk_seek+0xb5>
c000352d:	55                   	push   %ebp
c000352e:	57                   	push   %edi
c000352f:	56                   	push   %esi
c0003530:	53                   	push   %ebx
c0003531:	bb 0a 00 00 00       	mov    $0xa,%ebx
c0003536:	83 ec 2c             	sub    $0x2c,%esp
c0003539:	0f b6 44 24 44       	movzbl 0x44(%esp),%eax
c000353e:	0f b6 6c 24 40       	movzbl 0x40(%esp),%ebp
c0003543:	8d 7c 24 1c          	lea    0x1c(%esp),%edi
c0003547:	8d 74 24 18          	lea    0x18(%esp),%esi
c000354b:	c1 e0 02             	shl    $0x2,%eax
c000354e:	88 44 24 0f          	mov    %al,0xf(%esp)
c0003552:	8d b4 26 00 00 00 00 	lea    0x0(%esi,%eiz,1),%esi
c0003559:	8d bc 27 00 00 00 00 	lea    0x0(%edi,%eiz,1),%edi
c0003560:	83 ec 0c             	sub    $0xc,%esp
c0003563:	6a 0f                	push   $0xf
c0003565:	e8 16 fb ff ff       	call   c0003080 <flpydsk_send_command>
c000356a:	0f b6 44 24 1f       	movzbl 0x1f(%esp),%eax
c000356f:	0a 05 cc 88 00 c0    	or     0xc00088cc,%al
c0003575:	0f b6 c0             	movzbl %al,%eax
c0003578:	89 04 24             	mov    %eax,(%esp)
c000357b:	e8 00 fb ff ff       	call   c0003080 <flpydsk_send_command>
c0003580:	89 2c 24             	mov    %ebp,(%esp)
c0003583:	e8 f8 fa ff ff       	call   c0003080 <flpydsk_send_command>
c0003588:	83 c4 10             	add    $0x10,%esp
c000358b:	90                   	nop
c000358c:	8d 74 26 00          	lea    0x0(%esi,%eiz,1),%esi
c0003590:	0f b6 05 cb 88 00 c0 	movzbl 0xc00088cb,%eax
c0003597:	84 c0                	test   %al,%al
c0003599:	74 f5                	je     c0003590 <flpydsk_seek+0x70>
c000359b:	83 ec 08             	sub    $0x8,%esp
c000359e:	c6 05 cb 88 00 c0 00 	movb   $0x0,0xc00088cb
c00035a5:	57                   	push   %edi
c00035a6:	56                   	push   %esi
c00035a7:	e8 b4 fb ff ff       	call   c0003160 <flpydsk_check_int>
c00035ac:	83 c4 10             	add    $0x10,%esp
c00035af:	8b 44 24 1c          	mov    0x1c(%esp),%eax
c00035b3:	39 44 24 40          	cmp    %eax,0x40(%esp)
c00035b7:	74 12                	je     c00035cb <flpydsk_seek+0xab>
c00035b9:	83 eb 01             	sub    $0x1,%ebx
c00035bc:	75 a2                	jne    c0003560 <flpydsk_seek+0x40>
c00035be:	83 c4 2c             	add    $0x2c,%esp
c00035c1:	b8 ff ff ff ff       	mov    $0xffffffff,%eax
c00035c6:	5b                   	pop    %ebx
c00035c7:	5e                   	pop    %esi
c00035c8:	5f                   	pop    %edi
c00035c9:	5d                   	pop    %ebp
c00035ca:	c3                   	ret    
c00035cb:	83 c4 2c             	add    $0x2c,%esp
c00035ce:	31 c0                	xor    %eax,%eax
c00035d0:	5b                   	pop    %ebx
c00035d1:	5e                   	pop    %esi
c00035d2:	5f                   	pop    %edi
c00035d3:	5d                   	pop    %ebp
c00035d4:	c3                   	ret    
c00035d5:	b8 ff ff ff ff       	mov    $0xffffffff,%eax
c00035da:	c3                   	ret    
c00035db:	90                   	nop
c00035dc:	8d 74 26 00          	lea    0x0(%esi,%eiz,1),%esi

c00035e0 <flpydsk_lba_to_chs>:
c00035e0:	b9 39 8e e3 38       	mov    $0x38e38e39,%ecx
c00035e5:	55                   	push   %ebp
c00035e6:	57                   	push   %edi
c00035e7:	89 c8                	mov    %ecx,%eax
c00035e9:	56                   	push   %esi
c00035ea:	53                   	push   %ebx
c00035eb:	f7 6c 24 14          	imull  0x14(%esp)
c00035ef:	8b 6c 24 14          	mov    0x14(%esp),%ebp
c00035f3:	8b 7c 24 14          	mov    0x14(%esp),%edi
c00035f7:	c1 fd 1f             	sar    $0x1f,%ebp
c00035fa:	89 d6                	mov    %edx,%esi
c00035fc:	89 d3                	mov    %edx,%ebx
c00035fe:	c1 fe 03             	sar    $0x3,%esi
c0003601:	c1 fb 02             	sar    $0x2,%ebx
c0003604:	29 ee                	sub    %ebp,%esi
c0003606:	29 eb                	sub    %ebp,%ebx
c0003608:	8d 04 f6             	lea    (%esi,%esi,8),%eax
c000360b:	c1 e0 02             	shl    $0x2,%eax
c000360e:	29 c7                	sub    %eax,%edi
c0003610:	89 f8                	mov    %edi,%eax
c0003612:	c1 ff 1f             	sar    $0x1f,%edi
c0003615:	f7 e9                	imul   %ecx
c0003617:	8b 44 24 18          	mov    0x18(%esp),%eax
c000361b:	8b 4c 24 14          	mov    0x14(%esp),%ecx
c000361f:	c1 fa 02             	sar    $0x2,%edx
c0003622:	29 fa                	sub    %edi,%edx
c0003624:	89 10                	mov    %edx,(%eax)
c0003626:	8b 44 24 1c          	mov    0x1c(%esp),%eax
c000362a:	8b 54 24 20          	mov    0x20(%esp),%edx
c000362e:	89 30                	mov    %esi,(%eax)
c0003630:	8d 04 db             	lea    (%ebx,%ebx,8),%eax
c0003633:	01 c0                	add    %eax,%eax
c0003635:	29 c1                	sub    %eax,%ecx
c0003637:	89 c8                	mov    %ecx,%eax
c0003639:	83 c0 01             	add    $0x1,%eax
c000363c:	89 02                	mov    %eax,(%edx)
c000363e:	5b                   	pop    %ebx
c000363f:	5e                   	pop    %esi
c0003640:	5f                   	pop    %edi
c0003641:	5d                   	pop    %ebp
c0003642:	c3                   	ret    
c0003643:	8d b6 00 00 00 00    	lea    0x0(%esi),%esi
c0003649:	8d bc 27 00 00 00 00 	lea    0x0(%edi,%eiz,1),%edi

c0003650 <flpydsk_install>:
c0003650:	83 ec 14             	sub    $0x14,%esp
c0003653:	68 50 0e 00 c0       	push   $0xc0000e50
c0003658:	ff 74 24 1c          	pushl  0x1c(%esp)
c000365c:	e8 9f db ff ff       	call   c0001200 <setvect>
c0003661:	e8 fa f8 ff ff       	call   c0002f60 <flpydsk_initialize_dma>
c0003666:	e8 05 fd ff ff       	call   c0003370 <flpydsk_reset>
c000366b:	c7 04 24 03 00 00 00 	movl   $0x3,(%esp)
c0003672:	e8 09 fa ff ff       	call   c0003080 <flpydsk_send_command>
c0003677:	c7 04 24 df 00 00 00 	movl   $0xdf,(%esp)
c000367e:	e8 fd f9 ff ff       	call   c0003080 <flpydsk_send_command>
c0003683:	c7 44 24 20 00 00 00 	movl   $0x0,0x20(%esp)
c000368a:	00 
c000368b:	83 c4 1c             	add    $0x1c,%esp
c000368e:	e9 ed f9 ff ff       	jmp    c0003080 <flpydsk_send_command>
c0003693:	8d b6 00 00 00 00    	lea    0x0(%esi),%esi
c0003699:	8d bc 27 00 00 00 00 	lea    0x0(%edi,%eiz,1),%edi

c00036a0 <flpydsk_set_working_drive>:
c00036a0:	8b 44 24 04          	mov    0x4(%esp),%eax
c00036a4:	3c 03                	cmp    $0x3,%al
c00036a6:	77 05                	ja     c00036ad <flpydsk_set_working_drive+0xd>
c00036a8:	a2 cc 88 00 c0       	mov    %al,0xc00088cc
c00036ad:	f3 c3                	repz ret 
c00036af:	90                   	nop

c00036b0 <flpydsk_get_working_drive>:
c00036b0:	0f b6 05 cc 88 00 c0 	movzbl 0xc00088cc,%eax
c00036b7:	c3                   	ret    
c00036b8:	90                   	nop
c00036b9:	8d b4 26 00 00 00 00 	lea    0x0(%esi,%eiz,1),%esi

c00036c0 <flpydsk_read_sector>:
c00036c0:	80 3d cc 88 00 c0 03 	cmpb   $0x3,0xc00088cc
c00036c7:	0f 87 b3 00 00 00    	ja     c0003780 <flpydsk_read_sector+0xc0>
c00036cd:	55                   	push   %ebp
c00036ce:	57                   	push   %edi
c00036cf:	b9 39 8e e3 38       	mov    $0x38e38e39,%ecx
c00036d4:	56                   	push   %esi
c00036d5:	53                   	push   %ebx
c00036d6:	89 c8                	mov    %ecx,%eax
c00036d8:	83 ec 18             	sub    $0x18,%esp
c00036db:	f7 6c 24 2c          	imull  0x2c(%esp)
c00036df:	8b 6c 24 2c          	mov    0x2c(%esp),%ebp
c00036e3:	8b 5c 24 2c          	mov    0x2c(%esp),%ebx
c00036e7:	c1 fd 1f             	sar    $0x1f,%ebp
c00036ea:	89 d6                	mov    %edx,%esi
c00036ec:	89 d7                	mov    %edx,%edi
c00036ee:	c1 fe 03             	sar    $0x3,%esi
c00036f1:	c1 ff 02             	sar    $0x2,%edi
c00036f4:	29 ee                	sub    %ebp,%esi
c00036f6:	29 ef                	sub    %ebp,%edi
c00036f8:	8d 04 f6             	lea    (%esi,%esi,8),%eax
c00036fb:	c1 e0 02             	shl    $0x2,%eax
c00036fe:	29 c3                	sub    %eax,%ebx
c0003700:	89 d8                	mov    %ebx,%eax
c0003702:	c1 fb 1f             	sar    $0x1f,%ebx
c0003705:	f7 e9                	imul   %ecx
c0003707:	8b 4c 24 2c          	mov    0x2c(%esp),%ecx
c000370b:	8d 04 ff             	lea    (%edi,%edi,8),%eax
c000370e:	6a 01                	push   $0x1
c0003710:	01 c0                	add    %eax,%eax
c0003712:	c1 fa 02             	sar    $0x2,%edx
c0003715:	29 c1                	sub    %eax,%ecx
c0003717:	29 da                	sub    %ebx,%edx
c0003719:	8d 79 01             	lea    0x1(%ecx),%edi
c000371c:	89 d3                	mov    %edx,%ebx
c000371e:	e8 6d fa ff ff       	call   c0003190 <flpydsk_control_motor>
c0003723:	58                   	pop    %eax
c0003724:	5a                   	pop    %edx
c0003725:	53                   	push   %ebx
c0003726:	56                   	push   %esi
c0003727:	e8 f4 fd ff ff       	call   c0003520 <flpydsk_seek>
c000372c:	83 c4 10             	add    $0x10,%esp
c000372f:	85 c0                	test   %eax,%eax
c0003731:	75 3d                	jne    c0003770 <flpydsk_read_sector+0xb0>
c0003733:	89 f8                	mov    %edi,%eax
c0003735:	83 ec 04             	sub    $0x4,%esp
c0003738:	0f b6 db             	movzbl %bl,%ebx
c000373b:	0f b6 c0             	movzbl %al,%eax
c000373e:	50                   	push   %eax
c000373f:	89 f0                	mov    %esi,%eax
c0003741:	0f b6 f0             	movzbl %al,%esi
c0003744:	56                   	push   %esi
c0003745:	53                   	push   %ebx
c0003746:	e8 d5 fc ff ff       	call   c0003420 <flpydsk_read_sector_imp>
c000374b:	c7 04 24 00 00 00 00 	movl   $0x0,(%esp)
c0003752:	e8 39 fa ff ff       	call   c0003190 <flpydsk_control_motor>
c0003757:	83 c4 10             	add    $0x10,%esp
c000375a:	b8 00 10 00 00       	mov    $0x1000,%eax
c000375f:	83 c4 0c             	add    $0xc,%esp
c0003762:	5b                   	pop    %ebx
c0003763:	5e                   	pop    %esi
c0003764:	5f                   	pop    %edi
c0003765:	5d                   	pop    %ebp
c0003766:	c3                   	ret    
c0003767:	89 f6                	mov    %esi,%esi
c0003769:	8d bc 27 00 00 00 00 	lea    0x0(%edi,%eiz,1),%edi
c0003770:	83 c4 0c             	add    $0xc,%esp
c0003773:	31 c0                	xor    %eax,%eax
c0003775:	5b                   	pop    %ebx
c0003776:	5e                   	pop    %esi
c0003777:	5f                   	pop    %edi
c0003778:	5d                   	pop    %ebp
c0003779:	c3                   	ret    
c000377a:	8d b6 00 00 00 00    	lea    0x0(%esi),%esi
c0003780:	31 c0                	xor    %eax,%eax
c0003782:	c3                   	ret    

Disassembly of section .text.startup:

c0003790 <main>:
c0003790:	8d 4c 24 04          	lea    0x4(%esp),%ecx
c0003794:	83 e4 f0             	and    $0xfffffff0,%esp
c0003797:	ff 71 fc             	pushl  -0x4(%ecx)
c000379a:	55                   	push   %ebp
c000379b:	89 e5                	mov    %esp,%ebp
c000379d:	51                   	push   %ecx
c000379e:	83 ec 10             	sub    $0x10,%esp
c00037a1:	ff 31                	pushl  (%ecx)
c00037a3:	e8 b8 cf ff ff       	call   c0000760 <init>
c00037a8:	58                   	pop    %eax
c00037a9:	5a                   	pop    %edx
c00037aa:	6a 00                	push   $0x0
c00037ac:	6a 00                	push   $0x0
c00037ae:	e8 8d cb ff ff       	call   c0000340 <debug_goto_xy>
c00037b3:	c7 04 24 40 67 00 c0 	movl   $0xc0006740,(%esp)
c00037ba:	e8 01 cc ff ff       	call   c00003c0 <debug_puts>
c00037bf:	c7 04 24 f4 63 00 c0 	movl   $0xc00063f4,(%esp)
c00037c6:	e8 f5 cb ff ff       	call   c00003c0 <debug_puts>
c00037cb:	c7 04 24 2c 64 00 c0 	movl   $0xc000642c,(%esp)
c00037d2:	e8 e9 cb ff ff       	call   c00003c0 <debug_puts>
c00037d7:	e8 a4 d5 ff ff       	call   c0000d80 <run>
c00037dc:	c7 04 24 68 64 00 c0 	movl   $0xc0006468,(%esp)
c00037e3:	e8 28 cc ff ff       	call   c0000410 <debug_printf>
c00037e8:	83 c4 10             	add    $0x10,%esp
c00037eb:	eb fe                	jmp    c00037eb <main+0x5b>

Disassembly of section .rodata:

c0004000 <INVALID_SCANCODE-0x22c>:
c0004000:	20 05 00 c0 bb 04    	and    %al,0x4bbc000
c0004006:	00 c0                	add    %al,%al
c0004008:	bb 04 00 c0 bb       	mov    $0xbbc00004,%ebx
c000400d:	04 00                	add    $0x0,%al
c000400f:	c0 bb 04 00 c0 bb 04 	sarb   $0x4,-0x443ffffc(%ebx)
c0004016:	00 c0                	add    %al,%al
c0004018:	bb 04 00 c0 bb       	mov    $0xbbc00004,%ebx
c000401d:	04 00                	add    $0x0,%al
c000401f:	c0 bb 04 00 c0 bb 04 	sarb   $0x4,-0x443ffffc(%ebx)
c0004026:	00 c0                	add    %al,%al
c0004028:	bb 04 00 c0 00       	mov    $0xc00004,%ebx
c000402d:	05 00 c0 d0 04       	add    $0x4d0c000,%eax
c0004032:	00 c0                	add    %al,%al
c0004034:	bb 04 00 c0 bb       	mov    $0xbbc00004,%ebx
c0004039:	04 00                	add    $0x0,%al
c000403b:	c0 bb 04 00 c0 bb 04 	sarb   $0x4,-0x443ffffc(%ebx)
c0004042:	00 c0                	add    %al,%al
c0004044:	d0 04 00             	rolb   (%eax,%eax,1)
c0004047:	c0 bb 04 00 c0 bb 04 	sarb   $0x4,-0x443ffffc(%ebx)
c000404e:	00 c0                	add    %al,%al
c0004050:	bb 04 00 c0 bb       	mov    $0xbbc00004,%ebx
c0004055:	04 00                	add    $0x0,%al
c0004057:	c0 bb 04 00 c0 bb 04 	sarb   $0x4,-0x443ffffc(%ebx)
c000405e:	00 c0                	add    %al,%al
c0004060:	bb 04 00 c0 bb       	mov    $0xbbc00004,%ebx
c0004065:	04 00                	add    $0x0,%al
c0004067:	c0 bb 04 00 c0 70 04 	sarb   $0x4,0x70c00004(%ebx)
c000406e:	00 c0                	add    %al,%al
c0004070:	bb 04 00 c0 bb       	mov    $0xbbc00004,%ebx
c0004075:	04 00                	add    $0x0,%al
c0004077:	c0 bb 04 00 c0 bb 04 	sarb   $0x4,-0x443ffffc(%ebx)
c000407e:	00 c0                	add    %al,%al
c0004080:	20 05 00 c0 f0 14    	and    %al,0x14f0c000
c0004086:	00 c0                	add    %al,%al
c0004088:	60                   	pusha  
c0004089:	15 00 c0 60 15       	adc    $0x1560c000,%eax
c000408e:	00 c0                	add    %al,%al
c0004090:	60                   	pusha  
c0004091:	15 00 c0 60 15       	adc    $0x1560c000,%eax
c0004096:	00 c0                	add    %al,%al
c0004098:	60                   	pusha  
c0004099:	15 00 c0 60 15       	adc    $0x1560c000,%eax
c000409e:	00 c0                	add    %al,%al
c00040a0:	60                   	pusha  
c00040a1:	15 00 c0 60 15       	adc    $0x1560c000,%eax
c00040a6:	00 c0                	add    %al,%al
c00040a8:	60                   	pusha  
c00040a9:	15 00 c0 60 15       	adc    $0x1560c000,%eax
c00040ae:	00 c0                	add    %al,%al
c00040b0:	b0 14                	mov    $0x14,%al
c00040b2:	00 c0                	add    %al,%al
c00040b4:	80 14 00 c0          	adcb   $0xc0,(%eax,%eax,1)
c00040b8:	60                   	pusha  
c00040b9:	15 00 c0 60 15       	adc    $0x1560c000,%eax
c00040be:	00 c0                	add    %al,%al
c00040c0:	60                   	pusha  
c00040c1:	15 00 c0 60 15       	adc    $0x1560c000,%eax
c00040c6:	00 c0                	add    %al,%al
c00040c8:	80 14 00 c0          	adcb   $0xc0,(%eax,%eax,1)
c00040cc:	60                   	pusha  
c00040cd:	15 00 c0 60 15       	adc    $0x1560c000,%eax
c00040d2:	00 c0                	add    %al,%al
c00040d4:	60                   	pusha  
c00040d5:	15 00 c0 60 15       	adc    $0x1560c000,%eax
c00040da:	00 c0                	add    %al,%al
c00040dc:	60                   	pusha  
c00040dd:	15 00 c0 60 15       	adc    $0x1560c000,%eax
c00040e2:	00 c0                	add    %al,%al
c00040e4:	60                   	pusha  
c00040e5:	15 00 c0 60 15       	adc    $0x1560c000,%eax
c00040ea:	00 c0                	add    %al,%al
c00040ec:	60                   	pusha  
c00040ed:	15 00 c0 50 14       	adc    $0x1450c000,%eax
c00040f2:	00 c0                	add    %al,%al
c00040f4:	60                   	pusha  
c00040f5:	15 00 c0 60 15       	adc    $0x1560c000,%eax
c00040fa:	00 c0                	add    %al,%al
c00040fc:	60                   	pusha  
c00040fd:	15 00 c0 60 15       	adc    $0x1560c000,%eax
c0004102:	00 c0                	add    %al,%al
c0004104:	f0 14 00             	lock adc $0x0,%al
c0004107:	c0 00 00             	rolb   $0x0,(%eax)
	...
c000411e:	00 00                	add    %al,(%eax)
c0004120:	60                   	pusha  
c0004121:	2d 00 c0 c0 2d       	sub    $0x2dc0c000,%eax
c0004126:	00 c0                	add    %al,%al
c0004128:	60                   	pusha  
c0004129:	2d 00 c0 a0 2d       	sub    $0x2da0c000,%eax
c000412e:	00 c0                	add    %al,%al
c0004130:	90                   	nop
c0004131:	2d 00 c0 80 2d       	sub    $0x2d80c000,%eax
c0004136:	00 c0                	add    %al,%al
c0004138:	70 2d                	jo     c0004167 <main+0x9d7>
c000413a:	00 c0                	add    %al,%al
c000413c:	b0 2d                	mov    $0x2d,%al
c000413e:	00 c0                	add    %al,%al
c0004140:	27                   	daa    
c0004141:	2e                   	cs
c0004142:	00 c0                	add    %al,%al
c0004144:	dc 2d 00 c0 20 2d    	fsubrl 0x2d20c000
c000414a:	00 c0                	add    %al,%al
c000414c:	20 2d 00 c0 20 2d    	and    %ch,0x2d20c000
c0004152:	00 c0                	add    %al,%al
c0004154:	d5 2d                	aad    $0x2d
c0004156:	00 c0                	add    %al,%al
c0004158:	f1                   	icebp  
c0004159:	2d 00 c0 ea 2d       	sub    $0x2deac000,%eax
c000415e:	00 c0                	add    %al,%al
c0004160:	c7                   	(bad)  
c0004161:	2d 00 c0 ce 2d       	sub    $0x2dcec000,%eax
c0004166:	00 c0                	add    %al,%al
c0004168:	20 2d 00 c0 20 2d    	and    %ch,0x2d20c000
c000416e:	00 c0                	add    %al,%al
c0004170:	20 2d 00 c0 20 2d    	and    %ch,0x2d20c000
c0004176:	00 c0                	add    %al,%al
c0004178:	20 2d 00 c0 20 2d    	and    %ch,0x2d20c000
c000417e:	00 c0                	add    %al,%al
c0004180:	20 2d 00 c0 20 2d    	and    %ch,0x2d20c000
c0004186:	00 c0                	add    %al,%al
c0004188:	20 2d 00 c0 20 2d    	and    %ch,0x2d20c000
c000418e:	00 c0                	add    %al,%al
c0004190:	20 2d 00 c0 0d 2e    	and    %ch,0x2e0dc000
c0004196:	00 c0                	add    %al,%al
c0004198:	20 2d 00 c0 20 2d    	and    %ch,0x2d20c000
c000419e:	00 c0                	add    %al,%al
c00041a0:	20 2d 00 c0 20 2d    	and    %ch,0x2d20c000
c00041a6:	00 c0                	add    %al,%al
c00041a8:	20 2d 00 c0 20 2d    	and    %ch,0x2d20c000
c00041ae:	00 c0                	add    %al,%al
c00041b0:	20 2d 00 c0 20 2d    	and    %ch,0x2d20c000
c00041b6:	00 c0                	add    %al,%al
c00041b8:	20 2d 00 c0 20 2d    	and    %ch,0x2d20c000
c00041be:	00 c0                	add    %al,%al
c00041c0:	20 2d 00 c0 20 2d    	and    %ch,0x2d20c000
c00041c6:	00 c0                	add    %al,%al
c00041c8:	20 2d 00 c0 20 2d    	and    %ch,0x2d20c000
c00041ce:	00 c0                	add    %al,%al
c00041d0:	20 2d 00 c0 20 2d    	and    %ch,0x2d20c000
c00041d6:	00 c0                	add    %al,%al
c00041d8:	20 2d 00 c0 20 2d    	and    %ch,0x2d20c000
c00041de:	00 c0                	add    %al,%al
c00041e0:	20 2d 00 c0 20 2d    	and    %ch,0x2d20c000
c00041e6:	00 c0                	add    %al,%al
c00041e8:	20 2d 00 c0 20 2d    	and    %ch,0x2d20c000
c00041ee:	00 c0                	add    %al,%al
c00041f0:	20 2d 00 c0 20 2d    	and    %ch,0x2d20c000
c00041f6:	00 c0                	add    %al,%al
c00041f8:	20 2d 00 c0 20 2d    	and    %ch,0x2d20c000
c00041fe:	00 c0                	add    %al,%al
c0004200:	20 2d 00 c0 20 2d    	and    %ch,0x2d20c000
c0004206:	00 c0                	add    %al,%al
c0004208:	20 2d 00 c0 20 2d    	and    %ch,0x2d20c000
c000420e:	00 c0                	add    %al,%al
c0004210:	20 2d 00 c0 06 2e    	and    %ch,0x2e06c000
c0004216:	00 c0                	add    %al,%al
c0004218:	ff 2d 00 c0 f8 2d    	ljmp   *0x2df8c000
c000421e:	00 c0                	add    %al,%al
c0004220:	20 2d 00 c0 20 2d    	and    %ch,0x2d20c000
c0004226:	00 c0                	add    %al,%al
c0004228:	e3 2d                	jecxz  c0004257 <_kkybrd_scancode_std+0x17>
c000422a:	00 c0                	add    %al,%al

c000422c <INVALID_SCANCODE>:
	...

c0004240 <_kkybrd_scancode_std>:
c0004240:	12 40 00             	adc    0x0(%eax),%al
c0004243:	00 01                	add    %al,(%ecx)
c0004245:	10 00                	adc    %al,(%eax)
c0004247:	00 31                	add    %dh,(%ecx)
c0004249:	00 00                	add    %al,(%eax)
c000424b:	00 32                	add    %dh,(%edx)
c000424d:	00 00                	add    %al,(%eax)
c000424f:	00 33                	add    %dh,(%ebx)
c0004251:	00 00                	add    %al,(%eax)
c0004253:	00 34 00             	add    %dh,(%eax,%eax,1)
c0004256:	00 00                	add    %al,(%eax)
c0004258:	35 00 00 00 36       	xor    $0x36000000,%eax
c000425d:	00 00                	add    %al,(%eax)
c000425f:	00 37                	add    %dh,(%edi)
c0004261:	00 00                	add    %al,(%eax)
c0004263:	00 38                	add    %bh,(%eax)
c0004265:	00 00                	add    %al,(%eax)
c0004267:	00 39                	add    %bh,(%ecx)
c0004269:	00 00                	add    %al,(%eax)
c000426b:	00 30                	add    %dh,(%eax)
c000426d:	00 00                	add    %al,(%eax)
c000426f:	00 2d 00 00 00 3d    	add    %ch,0x3d000000
c0004275:	00 00                	add    %al,(%eax)
c0004277:	00 08                	add    %cl,(%eax)
c0004279:	00 00                	add    %al,(%eax)
c000427b:	00 00                	add    %al,(%eax)
c000427d:	40                   	inc    %eax
c000427e:	00 00                	add    %al,(%eax)
c0004280:	71 00                	jno    c0004282 <_kkybrd_scancode_std+0x42>
c0004282:	00 00                	add    %al,(%eax)
c0004284:	77 00                	ja     c0004286 <_kkybrd_scancode_std+0x46>
c0004286:	00 00                	add    %al,(%eax)
c0004288:	65 00 00             	add    %al,%gs:(%eax)
c000428b:	00 72 00             	add    %dh,0x0(%edx)
c000428e:	00 00                	add    %al,(%eax)
c0004290:	74 00                	je     c0004292 <_kkybrd_scancode_std+0x52>
c0004292:	00 00                	add    %al,(%eax)
c0004294:	79 00                	jns    c0004296 <_kkybrd_scancode_std+0x56>
c0004296:	00 00                	add    %al,(%eax)
c0004298:	75 00                	jne    c000429a <_kkybrd_scancode_std+0x5a>
c000429a:	00 00                	add    %al,(%eax)
c000429c:	69 00 00 00 6f 00    	imul   $0x6f0000,(%eax),%eax
c00042a2:	00 00                	add    %al,(%eax)
c00042a4:	70 00                	jo     c00042a6 <_kkybrd_scancode_std+0x66>
c00042a6:	00 00                	add    %al,(%eax)
c00042a8:	5b                   	pop    %ebx
c00042a9:	00 00                	add    %al,(%eax)
c00042ab:	00 5d 00             	add    %bl,0x0(%ebp)
c00042ae:	00 00                	add    %al,(%eax)
c00042b0:	0d 00 00 00 03       	or     $0x3000000,%eax
c00042b5:	40                   	inc    %eax
c00042b6:	00 00                	add    %al,(%eax)
c00042b8:	61                   	popa   
c00042b9:	00 00                	add    %al,(%eax)
c00042bb:	00 73 00             	add    %dh,0x0(%ebx)
c00042be:	00 00                	add    %al,(%eax)
c00042c0:	64 00 00             	add    %al,%fs:(%eax)
c00042c3:	00 66 00             	add    %ah,0x0(%esi)
c00042c6:	00 00                	add    %al,(%eax)
c00042c8:	67 00 00             	add    %al,(%bx,%si)
c00042cb:	00 68 00             	add    %ch,0x0(%eax)
c00042ce:	00 00                	add    %al,(%eax)
c00042d0:	6a 00                	push   $0x0
c00042d2:	00 00                	add    %al,(%eax)
c00042d4:	6b 00 00             	imul   $0x0,(%eax),%eax
c00042d7:	00 6c 00 00          	add    %ch,0x0(%eax,%eax,1)
c00042db:	00 3b                	add    %bh,(%ebx)
c00042dd:	00 00                	add    %al,(%eax)
c00042df:	00 27                	add    %ah,(%edi)
c00042e1:	00 00                	add    %al,(%eax)
c00042e3:	00 60 00             	add    %ah,0x0(%eax)
c00042e6:	00 00                	add    %al,(%eax)
c00042e8:	02 40 00             	add    0x0(%eax),%al
c00042eb:	00 5c 00 00          	add    %bl,0x0(%eax,%eax,1)
c00042ef:	00 7a 00             	add    %bh,0x0(%edx)
c00042f2:	00 00                	add    %al,(%eax)
c00042f4:	78 00                	js     c00042f6 <_kkybrd_scancode_std+0xb6>
c00042f6:	00 00                	add    %al,(%eax)
c00042f8:	63 00                	arpl   %ax,(%eax)
c00042fa:	00 00                	add    %al,(%eax)
c00042fc:	76 00                	jbe    c00042fe <_kkybrd_scancode_std+0xbe>
c00042fe:	00 00                	add    %al,(%eax)
c0004300:	62 00                	bound  %eax,(%eax)
c0004302:	00 00                	add    %al,(%eax)
c0004304:	6e                   	outsb  %ds:(%esi),(%dx)
c0004305:	00 00                	add    %al,(%eax)
c0004307:	00 6d 00             	add    %ch,0x0(%ebp)
c000430a:	00 00                	add    %al,(%eax)
c000430c:	2c 00                	sub    $0x0,%al
c000430e:	00 00                	add    %al,(%eax)
c0004310:	2e 00 00             	add    %al,%cs:(%eax)
c0004313:	00 2f                	add    %ch,(%edi)
c0004315:	00 00                	add    %al,(%eax)
c0004317:	00 06                	add    %al,(%esi)
c0004319:	40                   	inc    %eax
c000431a:	00 00                	add    %al,(%eax)
c000431c:	2a 00                	sub    (%eax),%al
c000431e:	00 00                	add    %al,(%eax)
c0004320:	08 40 00             	or     %al,0x0(%eax)
c0004323:	00 20                	add    %ah,(%eax)
c0004325:	00 00                	add    %al,(%eax)
c0004327:	00 01                	add    %al,(%ecx)
c0004329:	40                   	inc    %eax
c000432a:	00 00                	add    %al,(%eax)
c000432c:	01 12                	add    %edx,(%edx)
c000432e:	00 00                	add    %al,(%eax)
c0004330:	02 12                	add    (%edx),%dl
c0004332:	00 00                	add    %al,(%eax)
c0004334:	03 12                	add    (%edx),%edx
c0004336:	00 00                	add    %al,(%eax)
c0004338:	04 12                	add    $0x12,%al
c000433a:	00 00                	add    %al,(%eax)
c000433c:	05 12 00 00 06       	add    $0x6000012,%eax
c0004341:	12 00                	adc    (%eax),%al
c0004343:	00 07                	add    %al,(%edi)
c0004345:	12 00                	adc    (%eax),%al
c0004347:	00 08                	add    %cl,(%eax)
c0004349:	12 00                	adc    (%eax),%al
c000434b:	00 09                	add    %cl,(%ecx)
c000434d:	12 00                	adc    (%eax),%al
c000434f:	00 0a                	add    %cl,(%edx)
c0004351:	12 00                	adc    (%eax),%al
c0004353:	00 0f                	add    %cl,(%edi)
c0004355:	30 00                	xor    %al,(%eax)
c0004357:	00 10                	add    %dl,(%eax)
c0004359:	40                   	inc    %eax
c000435a:	00 00                	add    %al,(%eax)
c000435c:	0c 40                	or     $0x40,%al
c000435e:	00 00                	add    %al,(%eax)
c0004360:	38 00                	cmp    %al,(%eax)
c0004362:	00 00                	add    %al,(%eax)
c0004364:	0e                   	push   %cs
c0004365:	40                   	inc    %eax
c0004366:	00 00                	add    %al,(%eax)
c0004368:	32 00                	xor    (%eax),%al
c000436a:	00 00                	add    %al,(%eax)
c000436c:	33 00                	xor    (%eax),%eax
c000436e:	00 00                	add    %al,(%eax)
c0004370:	30 00                	xor    %al,(%eax)
c0004372:	00 00                	add    %al,(%eax)
c0004374:	2e 00 00             	add    %al,%cs:(%eax)
c0004377:	00 12                	add    %dl,(%edx)
c0004379:	40                   	inc    %eax
c000437a:	00 00                	add    %al,(%eax)
c000437c:	12 40 00             	adc    0x0(%eax),%al
c000437f:	00 12                	add    %dl,(%edx)
c0004381:	40                   	inc    %eax
c0004382:	00 00                	add    %al,(%eax)
c0004384:	0b 12                	or     (%edx),%edx
c0004386:	00 00                	add    %al,(%eax)
c0004388:	0b 12                	or     (%edx),%edx
	...

c000438c <CSWTCH.30>:
c000438c:	10 00                	adc    %al,(%eax)
c000438e:	00 00                	add    %al,(%eax)
c0004390:	20 00                	and    %al,(%eax)
c0004392:	00 00                	add    %al,(%eax)
c0004394:	40                   	inc    %eax
c0004395:	00 00                	add    %al,(%eax)
c0004397:	00 80 00 00 00 00    	add    %al,0x0(%eax)

c000439c <DMA_BUFFER>:
c000439c:	00 10                	add    %dl,(%eax)
	...

c00043a0 <FLPY_SECTORS_PER_TRACK>:
c00043a0:	12 00                	adc    (%eax),%al
	...

c00043a4 <FLOPPY_IRQ>:
c00043a4:	06                   	push   %es
c00043a5:	00 00                	add    %al,(%eax)
	...

Disassembly of section .eh_frame:

c00043a8 <.eh_frame>:
c00043a8:	14 00                	adc    $0x0,%al
c00043aa:	00 00                	add    %al,(%eax)
c00043ac:	00 00                	add    %al,(%eax)
c00043ae:	00 00                	add    %al,(%eax)
c00043b0:	01 7a 52             	add    %edi,0x52(%edx)
c00043b3:	00 01                	add    %al,(%ecx)
c00043b5:	7c 08                	jl     c00043bf <FLOPPY_IRQ+0x1b>
c00043b7:	01 1b                	add    %ebx,(%ebx)
c00043b9:	0c 04                	or     $0x4,%al
c00043bb:	04 88                	add    $0x88,%al
c00043bd:	01 00                	add    %eax,(%eax)
c00043bf:	00 20                	add    %ah,(%eax)
c00043c1:	00 00                	add    %al,(%eax)
c00043c3:	00 1c 00             	add    %bl,(%eax,%eax,1)
c00043c6:	00 00                	add    %al,(%eax)
c00043c8:	38 bc ff ff 54 00 00 	cmp    %bh,0x54ff(%edi,%edi,8)
c00043cf:	00 00                	add    %al,(%eax)
c00043d1:	48                   	dec    %eax
c00043d2:	0e                   	push   %cs
c00043d3:	08 86 02 41 0e 0c    	or     %al,0xc0e4102(%esi)
c00043d9:	83 03 02             	addl   $0x2,(%ebx)
c00043dc:	42                   	inc    %edx
c00043dd:	c3                   	ret    
c00043de:	0e                   	push   %cs
c00043df:	08 48 c6             	or     %cl,-0x3a(%eax)
c00043e2:	0e                   	push   %cs
c00043e3:	04 2c                	add    $0x2c,%al
c00043e5:	00 00                	add    %al,(%eax)
c00043e7:	00 40 00             	add    %al,0x0(%eax)
c00043ea:	00 00                	add    %al,(%eax)
c00043ec:	74 bc                	je     c00043aa <FLOPPY_IRQ+0x6>
c00043ee:	ff                   	(bad)  
c00043ef:	ff 5e 00             	lcall  *0x0(%esi)
c00043f2:	00 00                	add    %al,(%eax)
c00043f4:	00 43 0e             	add    %al,0xe(%ebx)
c00043f7:	08 87 02 43 0e 0c    	or     %al,0xc0e4302(%edi)
c00043fd:	86 03                	xchg   %al,(%ebx)
c00043ff:	41                   	inc    %ecx
c0004400:	0e                   	push   %cs
c0004401:	10 83 04 02 50 0a    	adc    %al,0xa500204(%ebx)
c0004407:	c3                   	ret    
c0004408:	0e                   	push   %cs
c0004409:	0c 41                	or     $0x41,%al
c000440b:	c6                   	(bad)  
c000440c:	0e                   	push   %cs
c000440d:	08 41 c7             	or     %al,-0x39(%ecx)
c0004410:	0e                   	push   %cs
c0004411:	04 41                	add    $0x41,%al
c0004413:	0b 20                	or     (%eax),%esp
c0004415:	00 00                	add    %al,(%eax)
c0004417:	00 70 00             	add    %dh,0x0(%eax)
c000441a:	00 00                	add    %al,(%eax)
c000441c:	a4                   	movsb  %ds:(%esi),%es:(%edi)
c000441d:	bc ff ff 21 00       	mov    $0x21ffff,%esp
c0004422:	00 00                	add    %al,(%eax)
c0004424:	00 43 0e             	add    %al,0xe(%ebx)
c0004427:	08 83 02 4c 0a c3    	or     %al,-0x3cf5b3fe(%ebx)
c000442d:	0e                   	push   %cs
c000442e:	04 41                	add    $0x41,%al
c0004430:	0b 4b 0a             	or     0xa(%ebx),%ecx
c0004433:	c3                   	ret    
c0004434:	0e                   	push   %cs
c0004435:	04 42                	add    $0x42,%al
c0004437:	0b 4c 00 00          	or     0x0(%eax,%eax,1),%ecx
c000443b:	00 94 00 00 00 b0 bc 	add    %dl,-0x43500000(%eax,%eax,1)
c0004442:	ff                   	(bad)  
c0004443:	ff 64 00 00          	jmp    *0x0(%eax,%eax,1)
c0004447:	00 00                	add    %al,(%eax)
c0004449:	41                   	inc    %ecx
c000444a:	0e                   	push   %cs
c000444b:	08 83 02 43 0e 10    	or     %al,0x100e4302(%ebx)
c0004451:	5d                   	pop    %ebp
c0004452:	0e                   	push   %cs
c0004453:	18 42 0e             	sbb    %al,0xe(%edx)
c0004456:	1c 45                	sbb    $0x45,%al
c0004458:	0e                   	push   %cs
c0004459:	20 46 0e             	and    %al,0xe(%esi)
c000445c:	1c 41                	sbb    $0x41,%al
c000445e:	0e                   	push   %cs
c000445f:	18 47 0e             	sbb    %al,0xe(%edi)
c0004462:	1c 45                	sbb    $0x45,%al
c0004464:	0e                   	push   %cs
c0004465:	20 46 0e             	and    %al,0xe(%esi)
c0004468:	1c 41                	sbb    $0x41,%al
c000446a:	0e                   	push   %cs
c000446b:	18 42 0e             	sbb    %al,0xe(%edx)
c000446e:	1c 45                	sbb    $0x45,%al
c0004470:	0e                   	push   %cs
c0004471:	20 46 0e             	and    %al,0xe(%esi)
c0004474:	1c 41                	sbb    $0x41,%al
c0004476:	0e                   	push   %cs
c0004477:	18 41 0e             	sbb    %al,0xe(%ecx)
c000447a:	1c 45                	sbb    $0x45,%al
c000447c:	0e                   	push   %cs
c000447d:	20 48 0e             	and    %cl,0xe(%eax)
c0004480:	08 41 c3             	or     %al,-0x3d(%ecx)
c0004483:	0e                   	push   %cs
c0004484:	04 00                	add    $0x0,%al
c0004486:	00 00                	add    %al,(%eax)
c0004488:	10 00                	adc    %al,(%eax)
c000448a:	00 00                	add    %al,(%eax)
c000448c:	e4 00                	in     $0x0,%al
c000448e:	00 00                	add    %al,(%eax)
c0004490:	d0 bc ff ff 12 00 00 	sarb   0x12ff(%edi,%edi,8)
c0004497:	00 00                	add    %al,(%eax)
c0004499:	00 00                	add    %al,(%eax)
c000449b:	00 38                	add    %bh,(%eax)
c000449d:	00 00                	add    %al,(%eax)
c000449f:	00 f8                	add    %bh,%al
c00044a1:	00 00                	add    %al,(%eax)
c00044a3:	00 dc                	add    %bl,%ah
c00044a5:	bc ff ff 33 01       	mov    $0x133ffff,%esp
c00044aa:	00 00                	add    %al,(%eax)
c00044ac:	00 41 0e             	add    %al,0xe(%ecx)
c00044af:	08 87 02 41 0e 0c    	or     %al,0xc0e4102(%edi)
c00044b5:	86 03                	xchg   %al,(%ebx)
c00044b7:	41                   	inc    %ecx
c00044b8:	0e                   	push   %cs
c00044b9:	10 83 04 02 ae 0e    	adc    %al,0xeae0204(%ebx)
c00044bf:	18 44 0e 1c          	sbb    %al,0x1c(%esi,%ecx,1)
c00044c3:	48                   	dec    %eax
c00044c4:	0e                   	push   %cs
c00044c5:	20 48 0e             	and    %cl,0xe(%eax)
c00044c8:	10 41 0a             	adc    %al,0xa(%ecx)
c00044cb:	c3                   	ret    
c00044cc:	0e                   	push   %cs
c00044cd:	0c 41                	or     $0x41,%al
c00044cf:	c6                   	(bad)  
c00044d0:	0e                   	push   %cs
c00044d1:	08 41 c7             	or     %al,-0x39(%ecx)
c00044d4:	0e                   	push   %cs
c00044d5:	04 48                	add    $0x48,%al
c00044d7:	0b 10                	or     (%eax),%edx
c00044d9:	00 00                	add    %al,(%eax)
c00044db:	00 34 01             	add    %dh,(%ecx,%eax,1)
c00044de:	00 00                	add    %al,(%eax)
c00044e0:	e0 bd                	loopne c000449f <FLOPPY_IRQ+0xfb>
c00044e2:	ff                   	(bad)  
c00044e3:	ff 28                	ljmp   *(%eax)
c00044e5:	00 00                	add    %al,(%eax)
c00044e7:	00 00                	add    %al,(%eax)
c00044e9:	00 00                	add    %al,(%eax)
c00044eb:	00 10                	add    %dl,(%eax)
c00044ed:	00 00                	add    %al,(%eax)
c00044ef:	00 48 01             	add    %cl,0x1(%eax)
c00044f2:	00 00                	add    %al,(%eax)
c00044f4:	fc                   	cld    
c00044f5:	bd ff ff 22 00       	mov    $0x22ffff,%ebp
c00044fa:	00 00                	add    %al,(%eax)
c00044fc:	00 00                	add    %al,(%eax)
c00044fe:	00 00                	add    %al,(%eax)
c0004500:	10 00                	adc    %al,(%eax)
c0004502:	00 00                	add    %al,(%eax)
c0004504:	5c                   	pop    %esp
c0004505:	01 00                	add    %eax,(%eax)
c0004507:	00 18                	add    %bl,(%eax)
c0004509:	be ff ff 12 00       	mov    $0x12ffff,%esi
c000450e:	00 00                	add    %al,(%eax)
c0004510:	00 00                	add    %al,(%eax)
c0004512:	00 00                	add    %al,(%eax)
c0004514:	10 00                	adc    %al,(%eax)
c0004516:	00 00                	add    %al,(%eax)
c0004518:	70 01                	jo     c000451b <FLOPPY_IRQ+0x177>
c000451a:	00 00                	add    %al,(%eax)
c000451c:	24 be                	and    $0xbe,%al
c000451e:	ff                   	(bad)  
c000451f:	ff                   	(bad)  
c0004520:	3d 00 00 00 00       	cmp    $0x0,%eax
c0004525:	00 00                	add    %al,(%eax)
c0004527:	00 1c 00             	add    %bl,(%eax,%eax,1)
c000452a:	00 00                	add    %al,(%eax)
c000452c:	84 01                	test   %al,(%ecx)
c000452e:	00 00                	add    %al,(%eax)
c0004530:	50                   	push   %eax
c0004531:	be ff ff 3a 00       	mov    $0x3affff,%esi
c0004536:	00 00                	add    %al,(%eax)
c0004538:	00 43 0e             	add    %al,0xe(%ebx)
c000453b:	10 6a 0e             	adc    %ch,0xe(%edx)
c000453e:	18 42 0e             	sbb    %al,0xe(%edx)
c0004541:	1c 42                	sbb    $0x42,%al
c0004543:	0e                   	push   %cs
c0004544:	20 48 0e             	and    %cl,0xe(%eax)
c0004547:	04 38                	add    $0x38,%al
c0004549:	00 00                	add    %al,(%eax)
c000454b:	00 a4 01 00 00 70 be 	add    %ah,-0x41900000(%ecx,%eax,1)
c0004552:	ff                   	(bad)  
c0004553:	ff 49 00             	decl   0x0(%ecx)
c0004556:	00 00                	add    %al,(%eax)
c0004558:	00 41 0e             	add    %al,0xe(%ecx)
c000455b:	08 86 02 41 0e 0c    	or     %al,0xc0e4102(%esi)
c0004561:	83 03 43             	addl   $0x43,(%ebx)
c0004564:	0e                   	push   %cs
c0004565:	10 62 0e             	adc    %ah,0xe(%edx)
c0004568:	1c 44                	sbb    $0x44,%al
c000456a:	0e                   	push   %cs
c000456b:	20 48 0e             	and    %cl,0xe(%eax)
c000456e:	10 43 0e             	adc    %al,0xe(%ebx)
c0004571:	1c 41                	sbb    $0x41,%al
c0004573:	0e                   	push   %cs
c0004574:	20 48 0e             	and    %cl,0xe(%eax)
c0004577:	10 47 0e             	adc    %al,0xe(%edi)
c000457a:	0c 41                	or     $0x41,%al
c000457c:	c3                   	ret    
c000457d:	0e                   	push   %cs
c000457e:	08 41 c6             	or     %al,-0x3a(%ecx)
c0004581:	0e                   	push   %cs
c0004582:	04 00                	add    $0x0,%al
c0004584:	94                   	xchg   %eax,%esp
c0004585:	00 00                	add    %al,(%eax)
c0004587:	00 e0                	add    %ah,%al
c0004589:	01 00                	add    %eax,(%eax)
c000458b:	00 84 be ff ff 8a 01 	add    %al,0x18affff(%esi,%edi,4)
c0004592:	00 00                	add    %al,(%eax)
c0004594:	00 41 0e             	add    %al,0xe(%ecx)
c0004597:	08 85 02 41 0e 0c    	or     %al,0xc0e4102(%ebp)
c000459d:	87 03                	xchg   %eax,(%ebx)
c000459f:	41                   	inc    %ecx
c00045a0:	0e                   	push   %cs
c00045a1:	10 86 04 41 0e 14    	adc    %al,0x140e4104(%esi)
c00045a7:	83 05 43 0e 70 53 0e 	addl   $0xe,0x53700e43
c00045ae:	7c 43                	jl     c00045f3 <FLOPPY_IRQ+0x24f>
c00045b0:	0e                   	push   %cs
c00045b1:	80 01 48             	addb   $0x48,(%ecx)
c00045b4:	0e                   	push   %cs
c00045b5:	70 02                	jo     c00045b9 <FLOPPY_IRQ+0x215>
c00045b7:	4c                   	dec    %esp
c00045b8:	0e                   	push   %cs
c00045b9:	78 4b                	js     c0004606 <FLOPPY_IRQ+0x262>
c00045bb:	0e                   	push   %cs
c00045bc:	7c 45                	jl     c0004603 <FLOPPY_IRQ+0x25f>
c00045be:	0e                   	push   %cs
c00045bf:	80 01 46             	addb   $0x46,(%ecx)
c00045c2:	0e                   	push   %cs
c00045c3:	7c 45                	jl     c000460a <FLOPPY_IRQ+0x266>
c00045c5:	0e                   	push   %cs
c00045c6:	80 01 48             	addb   $0x48,(%ecx)
c00045c9:	0e                   	push   %cs
c00045ca:	70 47                	jo     c0004613 <FLOPPY_IRQ+0x26f>
c00045cc:	0e                   	push   %cs
c00045cd:	7c 44                	jl     c0004613 <FLOPPY_IRQ+0x26f>
c00045cf:	0e                   	push   %cs
c00045d0:	80 01 48             	addb   $0x48,(%ecx)
c00045d3:	0e                   	push   %cs
c00045d4:	70 47                	jo     c000461d <FLOPPY_IRQ+0x279>
c00045d6:	0a 0e                	or     (%esi),%cl
c00045d8:	14 46                	adc    $0x46,%al
c00045da:	c3                   	ret    
c00045db:	0e                   	push   %cs
c00045dc:	10 41 c6             	adc    %al,-0x3a(%ecx)
c00045df:	0e                   	push   %cs
c00045e0:	0c 41                	or     $0x41,%al
c00045e2:	c7                   	(bad)  
c00045e3:	0e                   	push   %cs
c00045e4:	08 41 c5             	or     %al,-0x3b(%ecx)
c00045e7:	0e                   	push   %cs
c00045e8:	04 49                	add    $0x49,%al
c00045ea:	0b 76 0e             	or     0xe(%esi),%esi
c00045ed:	7c 4a                	jl     c0004639 <FLOPPY_IRQ+0x295>
c00045ef:	0e                   	push   %cs
c00045f0:	80 01 48             	addb   $0x48,(%ecx)
c00045f3:	0e                   	push   %cs
c00045f4:	70 74                	jo     c000466a <FLOPPY_IRQ+0x2c6>
c00045f6:	0e                   	push   %cs
c00045f7:	7c 47                	jl     c0004640 <FLOPPY_IRQ+0x29c>
c00045f9:	0e                   	push   %cs
c00045fa:	80 01 48             	addb   $0x48,(%ecx)
c00045fd:	0e                   	push   %cs
c00045fe:	70 58                	jo     c0004658 <FLOPPY_IRQ+0x2b4>
c0004600:	0e                   	push   %cs
c0004601:	7c 41                	jl     c0004644 <FLOPPY_IRQ+0x2a0>
c0004603:	0e                   	push   %cs
c0004604:	80 01 48             	addb   $0x48,(%ecx)
c0004607:	0e                   	push   %cs
c0004608:	70 57                	jo     c0004661 <FLOPPY_IRQ+0x2bd>
c000460a:	0e                   	push   %cs
c000460b:	14 43                	adc    $0x43,%al
c000460d:	c3                   	ret    
c000460e:	0e                   	push   %cs
c000460f:	10 41 c6             	adc    %al,-0x3a(%ecx)
c0004612:	0e                   	push   %cs
c0004613:	0c 41                	or     $0x41,%al
c0004615:	c7                   	(bad)  
c0004616:	0e                   	push   %cs
c0004617:	08 41 c5             	or     %al,-0x3b(%ecx)
c000461a:	0e                   	push   %cs
c000461b:	04 10                	add    $0x10,%al
c000461d:	00 00                	add    %al,(%eax)
c000461f:	00 78 02             	add    %bh,0x2(%eax)
c0004622:	00 00                	add    %al,(%eax)
c0004624:	7c bf                	jl     c00045e5 <FLOPPY_IRQ+0x241>
c0004626:	ff                   	(bad)  
c0004627:	ff 24 00             	jmp    *(%eax,%eax,1)
c000462a:	00 00                	add    %al,(%eax)
c000462c:	00 00                	add    %al,(%eax)
c000462e:	00 00                	add    %al,(%eax)
c0004630:	10 00                	adc    %al,(%eax)
c0004632:	00 00                	add    %al,(%eax)
c0004634:	8c 02                	mov    %es,(%edx)
c0004636:	00 00                	add    %al,(%eax)
c0004638:	98                   	cwtl   
c0004639:	bf ff ff 06 00       	mov    $0x6ffff,%edi
c000463e:	00 00                	add    %al,(%eax)
c0004640:	00 00                	add    %al,(%eax)
c0004642:	00 00                	add    %al,(%eax)
c0004644:	10 00                	adc    %al,(%eax)
c0004646:	00 00                	add    %al,(%eax)
c0004648:	a0 02 00 00 94       	mov    0x94000002,%al
c000464d:	bf ff ff 06 00       	mov    $0x6ffff,%edi
c0004652:	00 00                	add    %al,(%eax)
c0004654:	00 00                	add    %al,(%eax)
c0004656:	00 00                	add    %al,(%eax)
c0004658:	18 00                	sbb    %al,(%eax)
c000465a:	00 00                	add    %al,(%eax)
c000465c:	b4 02                	mov    $0x2,%ah
c000465e:	00 00                	add    %al,(%eax)
c0004660:	90                   	nop
c0004661:	bf ff ff 16 00       	mov    $0x16ffff,%edi
c0004666:	00 00                	add    %al,(%eax)
c0004668:	00 43 0e             	add    %al,0xe(%ebx)
c000466b:	1c 44                	sbb    $0x44,%al
c000466d:	0e                   	push   %cs
c000466e:	20 4d 0e             	and    %cl,0xe(%ebp)
c0004671:	10 00                	adc    %al,(%eax)
c0004673:	00 20                	add    %ah,(%eax)
c0004675:	00 00                	add    %al,(%eax)
c0004677:	00 d0                	add    %dl,%al
c0004679:	02 00                	add    (%eax),%al
c000467b:	00 94 bf ff ff 43 00 	add    %dl,0x43ffff(%edi,%edi,4)
c0004682:	00 00                	add    %al,(%eax)
c0004684:	00 41 0e             	add    %al,0xe(%ecx)
c0004687:	08 86 02 41 0e 0c    	or     %al,0xc0e4102(%esi)
c000468d:	83 03 7f             	addl   $0x7f,(%ebx)
c0004690:	c3                   	ret    
c0004691:	0e                   	push   %cs
c0004692:	08 41 c6             	or     %al,-0x3a(%ecx)
c0004695:	0e                   	push   %cs
c0004696:	04 00                	add    $0x0,%al
c0004698:	18 00                	sbb    %al,(%eax)
c000469a:	00 00                	add    %al,(%eax)
c000469c:	f4                   	hlt    
c000469d:	02 00                	add    (%eax),%al
c000469f:	00 c0                	add    %al,%al
c00046a1:	bf ff ff 31 00       	mov    $0x31ffff,%edi
c00046a6:	00 00                	add    %al,(%eax)
c00046a8:	00 41 0e             	add    %al,0xe(%ecx)
c00046ab:	08 83 02 6f c3 0e    	or     %al,0xec36f02(%ebx)
c00046b1:	04 00                	add    $0x0,%al
c00046b3:	00 10                	add    %dl,(%eax)
c00046b5:	00 00                	add    %al,(%eax)
c00046b7:	00 10                	add    %dl,(%eax)
c00046b9:	03 00                	add    (%eax),%eax
c00046bb:	00 e4                	add    %ah,%ah
c00046bd:	bf ff ff 1c 00       	mov    $0x1cffff,%edi
c00046c2:	00 00                	add    %al,(%eax)
c00046c4:	00 00                	add    %al,(%eax)
c00046c6:	00 00                	add    %al,(%eax)
c00046c8:	28 00                	sub    %al,(%eax)
c00046ca:	00 00                	add    %al,(%eax)
c00046cc:	24 03                	and    $0x3,%al
c00046ce:	00 00                	add    %al,(%eax)
c00046d0:	f0 bf ff ff 37 00    	lock mov $0x37ffff,%edi
c00046d6:	00 00                	add    %al,(%eax)
c00046d8:	00 41 0e             	add    %al,0xe(%ecx)
c00046db:	08 87 02 41 0e 0c    	or     %al,0xc0e4102(%edi)
c00046e1:	86 03                	xchg   %al,(%ebx)
c00046e3:	41                   	inc    %ecx
c00046e4:	0e                   	push   %cs
c00046e5:	10 83 04 71 c3 0e    	adc    %al,0xec37104(%ebx)
c00046eb:	0c 41                	or     $0x41,%al
c00046ed:	c6                   	(bad)  
c00046ee:	0e                   	push   %cs
c00046ef:	08 41 c7             	or     %al,-0x39(%ecx)
c00046f2:	0e                   	push   %cs
c00046f3:	04 10                	add    $0x10,%al
c00046f5:	00 00                	add    %al,(%eax)
c00046f7:	00 50 03             	add    %dl,0x3(%eax)
c00046fa:	00 00                	add    %al,(%eax)
c00046fc:	04 c0                	add    $0xc0,%al
c00046fe:	ff                   	(bad)  
c00046ff:	ff 2c 00             	ljmp   *(%eax,%eax,1)
c0004702:	00 00                	add    %al,(%eax)
c0004704:	00 00                	add    %al,(%eax)
c0004706:	00 00                	add    %al,(%eax)
c0004708:	18 00                	sbb    %al,(%eax)
c000470a:	00 00                	add    %al,(%eax)
c000470c:	64 03 00             	add    %fs:(%eax),%eax
c000470f:	00 20                	add    %ah,(%eax)
c0004711:	c0 ff ff             	sar    $0xff,%bh
c0004714:	2e 00 00             	add    %al,%cs:(%eax)
c0004717:	00 00                	add    %al,(%eax)
c0004719:	41                   	inc    %ecx
c000471a:	0e                   	push   %cs
c000471b:	08 83 02 6c c3 0e    	or     %al,0xec36c02(%ebx)
c0004721:	04 00                	add    $0x0,%al
c0004723:	00 5c 01 00          	add    %bl,0x0(%ecx,%eax,1)
c0004727:	00 80 03 00 00 34    	add    %al,0x34000003(%eax)
c000472d:	c0 ff ff             	sar    $0xff,%bh
c0004730:	45                   	inc    %ebp
c0004731:	02 00                	add    (%eax),%al
c0004733:	00 00                	add    %al,(%eax)
c0004735:	41                   	inc    %ecx
c0004736:	0e                   	push   %cs
c0004737:	08 86 02 41 0e 0c    	or     %al,0xc0e4102(%esi)
c000473d:	83 03 43             	addl   $0x43,(%ebx)
c0004740:	0e                   	push   %cs
c0004741:	2c 4d                	sub    $0x4d,%al
c0004743:	0e                   	push   %cs
c0004744:	30 52 0e             	xor    %dl,0xe(%edx)
c0004747:	2c 41                	sub    $0x41,%al
c0004749:	0e                   	push   %cs
c000474a:	28 42 0e             	sub    %al,0xe(%edx)
c000474d:	2c 42                	sub    $0x42,%al
c000474f:	0e                   	push   %cs
c0004750:	30 5e 0e             	xor    %bl,0xe(%esi)
c0004753:	2c 41                	sub    $0x41,%al
c0004755:	0e                   	push   %cs
c0004756:	28 42 0e             	sub    %al,0xe(%edx)
c0004759:	2c 42                	sub    $0x42,%al
c000475b:	0e                   	push   %cs
c000475c:	30 5e 0e             	xor    %bl,0xe(%esi)
c000475f:	2c 41                	sub    $0x41,%al
c0004761:	0e                   	push   %cs
c0004762:	28 42 0e             	sub    %al,0xe(%edx)
c0004765:	2c 42                	sub    $0x42,%al
c0004767:	0e                   	push   %cs
c0004768:	30 57 0e             	xor    %dl,0xe(%edi)
c000476b:	2c 41                	sub    $0x41,%al
c000476d:	0e                   	push   %cs
c000476e:	28 45 0e             	sub    %al,0xe(%ebp)
c0004771:	2c 42                	sub    $0x42,%al
c0004773:	0e                   	push   %cs
c0004774:	30 46 0e             	xor    %al,0xe(%esi)
c0004777:	2c 41                	sub    $0x41,%al
c0004779:	0e                   	push   %cs
c000477a:	28 45 0e             	sub    %al,0xe(%ebp)
c000477d:	2c 42                	sub    $0x42,%al
c000477f:	0e                   	push   %cs
c0004780:	30 46 0e             	xor    %al,0xe(%esi)
c0004783:	2c 41                	sub    $0x41,%al
c0004785:	0e                   	push   %cs
c0004786:	28 45 0e             	sub    %al,0xe(%ebp)
c0004789:	2c 42                	sub    $0x42,%al
c000478b:	0e                   	push   %cs
c000478c:	30 46 0e             	xor    %al,0xe(%esi)
c000478f:	2c 41                	sub    $0x41,%al
c0004791:	0e                   	push   %cs
c0004792:	28 45 0e             	sub    %al,0xe(%ebp)
c0004795:	2c 42                	sub    $0x42,%al
c0004797:	0e                   	push   %cs
c0004798:	30 46 0e             	xor    %al,0xe(%esi)
c000479b:	2c 41                	sub    $0x41,%al
c000479d:	0e                   	push   %cs
c000479e:	28 45 0e             	sub    %al,0xe(%ebp)
c00047a1:	2c 42                	sub    $0x42,%al
c00047a3:	0e                   	push   %cs
c00047a4:	30 46 0e             	xor    %al,0xe(%esi)
c00047a7:	2c 41                	sub    $0x41,%al
c00047a9:	0e                   	push   %cs
c00047aa:	28 45 0e             	sub    %al,0xe(%ebp)
c00047ad:	2c 42                	sub    $0x42,%al
c00047af:	0e                   	push   %cs
c00047b0:	30 46 0e             	xor    %al,0xe(%esi)
c00047b3:	2c 41                	sub    $0x41,%al
c00047b5:	0e                   	push   %cs
c00047b6:	28 45 0e             	sub    %al,0xe(%ebp)
c00047b9:	2c 42                	sub    $0x42,%al
c00047bb:	0e                   	push   %cs
c00047bc:	30 46 0e             	xor    %al,0xe(%esi)
c00047bf:	2c 41                	sub    $0x41,%al
c00047c1:	0e                   	push   %cs
c00047c2:	28 45 0e             	sub    %al,0xe(%ebp)
c00047c5:	2c 42                	sub    $0x42,%al
c00047c7:	0e                   	push   %cs
c00047c8:	30 46 0e             	xor    %al,0xe(%esi)
c00047cb:	2c 41                	sub    $0x41,%al
c00047cd:	0e                   	push   %cs
c00047ce:	28 45 0e             	sub    %al,0xe(%ebp)
c00047d1:	2c 42                	sub    $0x42,%al
c00047d3:	0e                   	push   %cs
c00047d4:	30 46 0e             	xor    %al,0xe(%esi)
c00047d7:	2c 41                	sub    $0x41,%al
c00047d9:	0e                   	push   %cs
c00047da:	28 45 0e             	sub    %al,0xe(%ebp)
c00047dd:	2c 42                	sub    $0x42,%al
c00047df:	0e                   	push   %cs
c00047e0:	30 46 0e             	xor    %al,0xe(%esi)
c00047e3:	2c 41                	sub    $0x41,%al
c00047e5:	0e                   	push   %cs
c00047e6:	28 45 0e             	sub    %al,0xe(%ebp)
c00047e9:	2c 42                	sub    $0x42,%al
c00047eb:	0e                   	push   %cs
c00047ec:	30 46 0e             	xor    %al,0xe(%esi)
c00047ef:	2c 41                	sub    $0x41,%al
c00047f1:	0e                   	push   %cs
c00047f2:	28 45 0e             	sub    %al,0xe(%ebp)
c00047f5:	2c 42                	sub    $0x42,%al
c00047f7:	0e                   	push   %cs
c00047f8:	30 46 0e             	xor    %al,0xe(%esi)
c00047fb:	2c 41                	sub    $0x41,%al
c00047fd:	0e                   	push   %cs
c00047fe:	28 45 0e             	sub    %al,0xe(%ebp)
c0004801:	2c 42                	sub    $0x42,%al
c0004803:	0e                   	push   %cs
c0004804:	30 46 0e             	xor    %al,0xe(%esi)
c0004807:	2c 41                	sub    $0x41,%al
c0004809:	0e                   	push   %cs
c000480a:	28 45 0e             	sub    %al,0xe(%ebp)
c000480d:	2c 42                	sub    $0x42,%al
c000480f:	0e                   	push   %cs
c0004810:	30 46 0e             	xor    %al,0xe(%esi)
c0004813:	2c 41                	sub    $0x41,%al
c0004815:	0e                   	push   %cs
c0004816:	28 45 0e             	sub    %al,0xe(%ebp)
c0004819:	2c 42                	sub    $0x42,%al
c000481b:	0e                   	push   %cs
c000481c:	30 46 0e             	xor    %al,0xe(%esi)
c000481f:	2c 41                	sub    $0x41,%al
c0004821:	0e                   	push   %cs
c0004822:	28 45 0e             	sub    %al,0xe(%ebp)
c0004825:	2c 42                	sub    $0x42,%al
c0004827:	0e                   	push   %cs
c0004828:	30 46 0e             	xor    %al,0xe(%esi)
c000482b:	2c 41                	sub    $0x41,%al
c000482d:	0e                   	push   %cs
c000482e:	28 45 0e             	sub    %al,0xe(%ebp)
c0004831:	2c 42                	sub    $0x42,%al
c0004833:	0e                   	push   %cs
c0004834:	30 4b 0e             	xor    %cl,0xe(%ebx)
c0004837:	2c 41                	sub    $0x41,%al
c0004839:	0e                   	push   %cs
c000483a:	28 45 0e             	sub    %al,0xe(%ebp)
c000483d:	2c 42                	sub    $0x42,%al
c000483f:	0e                   	push   %cs
c0004840:	30 50 0e             	xor    %dl,0xe(%eax)
c0004843:	2c 41                	sub    $0x41,%al
c0004845:	0e                   	push   %cs
c0004846:	28 4d 0e             	sub    %cl,0xe(%ebp)
c0004849:	2c 47                	sub    $0x47,%al
c000484b:	0e                   	push   %cs
c000484c:	30 48 0e             	xor    %cl,0xe(%eax)
c000484f:	20 5d 0e             	and    %bl,0xe(%ebp)
c0004852:	28 42 0e             	sub    %al,0xe(%edx)
c0004855:	2c 41                	sub    $0x41,%al
c0004857:	0e                   	push   %cs
c0004858:	30 48 0e             	xor    %cl,0xe(%eax)
c000485b:	20 48 0e             	and    %cl,0xe(%eax)
c000485e:	28 48 0e             	sub    %cl,0xe(%eax)
c0004861:	2c 45                	sub    $0x45,%al
c0004863:	0e                   	push   %cs
c0004864:	30 71 0e             	xor    %dh,0xe(%ecx)
c0004867:	20 43 0a             	and    %al,0xa(%ebx)
c000486a:	0e                   	push   %cs
c000486b:	0c 41                	or     $0x41,%al
c000486d:	c3                   	ret    
c000486e:	0e                   	push   %cs
c000486f:	08 41 c6             	or     %al,-0x3a(%ecx)
c0004872:	0e                   	push   %cs
c0004873:	04 4f                	add    $0x4f,%al
c0004875:	0b 43 0e             	or     0xe(%ebx),%eax
c0004878:	28 42 0e             	sub    %al,0xe(%edx)
c000487b:	2c 43                	sub    $0x43,%al
c000487d:	0e                   	push   %cs
c000487e:	30 48 0e             	xor    %cl,0xe(%eax)
c0004881:	20 00                	and    %al,(%eax)
c0004883:	00 14 00             	add    %dl,(%eax,%eax,1)
c0004886:	00 00                	add    %al,(%eax)
c0004888:	e0 04                	loopne c000488e <FLOPPY_IRQ+0x4ea>
c000488a:	00 00                	add    %al,(%eax)
c000488c:	24 c1                	and    $0xc1,%al
c000488e:	ff                   	(bad)  
c000488f:	ff 31                	pushl  (%ecx)
c0004891:	00 00                	add    %al,(%eax)
c0004893:	00 00                	add    %al,(%eax)
c0004895:	43                   	inc    %ebx
c0004896:	0e                   	push   %cs
c0004897:	10 6d 0e             	adc    %ch,0xe(%ebp)
c000489a:	04 00                	add    $0x0,%al
c000489c:	14 00                	adc    $0x0,%al
c000489e:	00 00                	add    %al,(%eax)
c00048a0:	f8                   	clc    
c00048a1:	04 00                	add    $0x0,%al
c00048a3:	00 4c c1 ff          	add    %cl,-0x1(%ecx,%eax,8)
c00048a7:	ff 2d 00 00 00 00    	ljmp   *0x0
c00048ad:	43                   	inc    %ebx
c00048ae:	0e                   	push   %cs
c00048af:	20 69 0e             	and    %ch,0xe(%ecx)
c00048b2:	04 00                	add    $0x0,%al
c00048b4:	18 00                	sbb    %al,(%eax)
c00048b6:	00 00                	add    %al,(%eax)
c00048b8:	10 05 00 00 64 c1    	adc    %al,0xc1640000
c00048be:	ff                   	(bad)  
c00048bf:	ff 11                	call   *(%ecx)
c00048c1:	00 00                	add    %al,(%eax)
c00048c3:	00 00                	add    %al,(%eax)
c00048c5:	43                   	inc    %ebx
c00048c6:	0e                   	push   %cs
c00048c7:	1c 45                	sbb    $0x45,%al
c00048c9:	0e                   	push   %cs
c00048ca:	20 48 0e             	and    %cl,0xe(%eax)
c00048cd:	04 00                	add    $0x0,%al
c00048cf:	00 94 00 00 00 2c 05 	add    %dl,0x52c0000(%eax,%eax,1)
c00048d6:	00 00                	add    %al,(%eax)
c00048d8:	68 c1 ff ff 4a       	push   $0x4affffc1
c00048dd:	01 00                	add    %eax,(%eax)
c00048df:	00 00                	add    %al,(%eax)
c00048e1:	41                   	inc    %ecx
c00048e2:	0e                   	push   %cs
c00048e3:	08 85 02 41 0e 0c    	or     %al,0xc0e4102(%ebp)
c00048e9:	87 03                	xchg   %eax,(%ebx)
c00048eb:	41                   	inc    %ecx
c00048ec:	0e                   	push   %cs
c00048ed:	10 86 04 41 0e 14    	adc    %al,0x140e4104(%esi)
c00048f3:	83 05 45 0e 4c 49 0e 	addl   $0xe,0x494c0e45
c00048fa:	50                   	push   %eax
c00048fb:	48                   	dec    %eax
c00048fc:	0e                   	push   %cs
c00048fd:	40                   	inc    %eax
c00048fe:	7c 0e                	jl     c000490e <FLOPPY_IRQ+0x56a>
c0004900:	4c                   	dec    %esp
c0004901:	41                   	inc    %ecx
c0004902:	0e                   	push   %cs
c0004903:	50                   	push   %eax
c0004904:	48                   	dec    %eax
c0004905:	0e                   	push   %cs
c0004906:	40                   	inc    %eax
c0004907:	4b                   	dec    %ebx
c0004908:	0e                   	push   %cs
c0004909:	4c                   	dec    %esp
c000490a:	42                   	inc    %edx
c000490b:	0e                   	push   %cs
c000490c:	50                   	push   %eax
c000490d:	48                   	dec    %eax
c000490e:	0e                   	push   %cs
c000490f:	40                   	inc    %eax
c0004910:	4f                   	dec    %edi
c0004911:	0a 0e                	or     (%esi),%cl
c0004913:	14 41                	adc    $0x41,%al
c0004915:	c3                   	ret    
c0004916:	0e                   	push   %cs
c0004917:	10 41 c6             	adc    %al,-0x3a(%ecx)
c000491a:	0e                   	push   %cs
c000491b:	0c 41                	or     $0x41,%al
c000491d:	c7                   	(bad)  
c000491e:	0e                   	push   %cs
c000491f:	08 41 c5             	or     %al,-0x3b(%ecx)
c0004922:	0e                   	push   %cs
c0004923:	04 49                	add    $0x49,%al
c0004925:	0b 47 0e             	or     0xe(%edi),%eax
c0004928:	48                   	dec    %eax
c0004929:	41                   	inc    %ecx
c000492a:	0e                   	push   %cs
c000492b:	4c                   	dec    %esp
c000492c:	41                   	inc    %ecx
c000492d:	0e                   	push   %cs
c000492e:	50                   	push   %eax
c000492f:	4c                   	dec    %esp
c0004930:	0e                   	push   %cs
c0004931:	40                   	inc    %eax
c0004932:	4e                   	dec    %esi
c0004933:	0e                   	push   %cs
c0004934:	48                   	dec    %eax
c0004935:	48                   	dec    %eax
c0004936:	0e                   	push   %cs
c0004937:	4c                   	dec    %esp
c0004938:	41                   	inc    %ecx
c0004939:	0e                   	push   %cs
c000493a:	50                   	push   %eax
c000493b:	48                   	dec    %eax
c000493c:	0e                   	push   %cs
c000493d:	40                   	inc    %eax
c000493e:	43                   	inc    %ebx
c000493f:	0e                   	push   %cs
c0004940:	4c                   	dec    %esp
c0004941:	45                   	inc    %ebp
c0004942:	0e                   	push   %cs
c0004943:	50                   	push   %eax
c0004944:	46                   	inc    %esi
c0004945:	0e                   	push   %cs
c0004946:	4c                   	dec    %esp
c0004947:	41                   	inc    %ecx
c0004948:	0e                   	push   %cs
c0004949:	48                   	dec    %eax
c000494a:	44                   	inc    %esp
c000494b:	0e                   	push   %cs
c000494c:	4c                   	dec    %esp
c000494d:	44                   	inc    %esp
c000494e:	0e                   	push   %cs
c000494f:	50                   	push   %eax
c0004950:	48                   	dec    %eax
c0004951:	0e                   	push   %cs
c0004952:	40                   	inc    %eax
c0004953:	50                   	push   %eax
c0004954:	0e                   	push   %cs
c0004955:	4c                   	dec    %esp
c0004956:	42                   	inc    %edx
c0004957:	0e                   	push   %cs
c0004958:	50                   	push   %eax
c0004959:	48                   	dec    %eax
c000495a:	0e                   	push   %cs
c000495b:	40                   	inc    %eax
c000495c:	56                   	push   %esi
c000495d:	0e                   	push   %cs
c000495e:	4c                   	dec    %esp
c000495f:	48                   	dec    %eax
c0004960:	0e                   	push   %cs
c0004961:	50                   	push   %eax
c0004962:	51                   	push   %ecx
c0004963:	0e                   	push   %cs
c0004964:	40                   	inc    %eax
c0004965:	00 00                	add    %al,(%eax)
c0004967:	00 7c 00 00          	add    %bh,0x0(%eax,%eax,1)
c000496b:	00 c4                	add    %al,%ah
c000496d:	05 00 00 20 c2       	add    $0xc2200000,%eax
c0004972:	ff                   	(bad)  
c0004973:	ff cd                	dec    %ebp
c0004975:	00 00                	add    %al,(%eax)
c0004977:	00 00                	add    %al,(%eax)
c0004979:	41                   	inc    %ecx
c000497a:	0e                   	push   %cs
c000497b:	08 87 02 41 0e 0c    	or     %al,0xc0e4102(%edi)
c0004981:	86 03                	xchg   %al,(%ebx)
c0004983:	41                   	inc    %ecx
c0004984:	0e                   	push   %cs
c0004985:	10 83 04 43 0e 2c    	adc    %al,0x2c0e4304(%ebx)
c000498b:	45                   	inc    %ebp
c000498c:	0e                   	push   %cs
c000498d:	30 46 0e             	xor    %al,0xe(%esi)
c0004990:	2c 41                	sub    $0x41,%al
c0004992:	0e                   	push   %cs
c0004993:	28 42 0e             	sub    %al,0xe(%edx)
c0004996:	2c 45                	sub    $0x45,%al
c0004998:	0e                   	push   %cs
c0004999:	30 4e 0e             	xor    %cl,0xe(%esi)
c000499c:	2c 41                	sub    $0x41,%al
c000499e:	0e                   	push   %cs
c000499f:	28 42 0e             	sub    %al,0xe(%edx)
c00049a2:	2c 45                	sub    $0x45,%al
c00049a4:	0e                   	push   %cs
c00049a5:	30 54 0e 20          	xor    %dl,0x20(%esi,%ecx,1)
c00049a9:	63 0e                	arpl   %cx,(%esi)
c00049ab:	28 44 0e 2c          	sub    %al,0x2c(%esi,%ecx,1)
c00049af:	45                   	inc    %ebp
c00049b0:	0e                   	push   %cs
c00049b1:	30 48 0e             	xor    %cl,0xe(%eax)
c00049b4:	20 47 0e             	and    %al,0xe(%edi)
c00049b7:	2c 45                	sub    $0x45,%al
c00049b9:	0e                   	push   %cs
c00049ba:	30 48 0e             	xor    %cl,0xe(%eax)
c00049bd:	20 5f 0e             	and    %bl,0xe(%edi)
c00049c0:	2c 45                	sub    $0x45,%al
c00049c2:	0e                   	push   %cs
c00049c3:	30 48 0e             	xor    %cl,0xe(%eax)
c00049c6:	10 41 c3             	adc    %al,-0x3d(%ecx)
c00049c9:	0e                   	push   %cs
c00049ca:	0c 41                	or     $0x41,%al
c00049cc:	c6                   	(bad)  
c00049cd:	0e                   	push   %cs
c00049ce:	08 41 c7             	or     %al,-0x39(%ecx)
c00049d1:	0e                   	push   %cs
c00049d2:	04 41                	add    $0x41,%al
c00049d4:	0e                   	push   %cs
c00049d5:	20 83 04 86 03 87    	and    %al,-0x78fc79fc(%ebx)
c00049db:	02 43 0e             	add    0xe(%ebx),%al
c00049de:	2c 45                	sub    $0x45,%al
c00049e0:	0e                   	push   %cs
c00049e1:	30 48 0e             	xor    %cl,0xe(%eax)
c00049e4:	20 00                	and    %al,(%eax)
c00049e6:	00 00                	add    %al,(%eax)
c00049e8:	74 00                	je     c00049ea <FLOPPY_IRQ+0x646>
c00049ea:	00 00                	add    %al,(%eax)
c00049ec:	44                   	inc    %esp
c00049ed:	06                   	push   %es
c00049ee:	00 00                	add    %al,(%eax)
c00049f0:	70 c2                	jo     c00049b4 <FLOPPY_IRQ+0x610>
c00049f2:	ff                   	(bad)  
c00049f3:	ff 1c 01             	lcall  *(%ecx,%eax,1)
c00049f6:	00 00                	add    %al,(%eax)
c00049f8:	00 41 0e             	add    %al,0xe(%ecx)
c00049fb:	08 83 02 43 0e 18    	or     %al,0x180e4302(%ebx)
c0004a01:	49                   	dec    %ecx
c0004a02:	0e                   	push   %cs
c0004a03:	1c 41                	sbb    $0x41,%al
c0004a05:	0e                   	push   %cs
c0004a06:	20 48 0e             	and    %cl,0xe(%eax)
c0004a09:	10 4c 0a 0e          	adc    %cl,0xe(%edx,%ecx,1)
c0004a0d:	08 43 c3             	or     %al,-0x3d(%ebx)
c0004a10:	0e                   	push   %cs
c0004a11:	04 4b                	add    $0x4b,%al
c0004a13:	0b 43 0e             	or     0xe(%ebx),%eax
c0004a16:	18 45 0e             	sbb    %al,0xe(%ebp)
c0004a19:	1c 41                	sbb    $0x41,%al
c0004a1b:	0e                   	push   %cs
c0004a1c:	20 48 0e             	and    %cl,0xe(%eax)
c0004a1f:	10 4b 0e             	adc    %cl,0xe(%ebx)
c0004a22:	18 45 0e             	sbb    %al,0xe(%ebp)
c0004a25:	1c 41                	sbb    $0x41,%al
c0004a27:	0e                   	push   %cs
c0004a28:	20 48 0e             	and    %cl,0xe(%eax)
c0004a2b:	10 47 0e             	adc    %al,0xe(%edi)
c0004a2e:	18 45 0e             	sbb    %al,0xe(%ebp)
c0004a31:	1c 41                	sbb    $0x41,%al
c0004a33:	0e                   	push   %cs
c0004a34:	20 48 0e             	and    %cl,0xe(%eax)
c0004a37:	10 4b 0e             	adc    %cl,0xe(%ebx)
c0004a3a:	1c 45                	sbb    $0x45,%al
c0004a3c:	0e                   	push   %cs
c0004a3d:	20 48 0e             	and    %cl,0xe(%eax)
c0004a40:	10 4c 0e 1c          	adc    %cl,0x1c(%esi,%ecx,1)
c0004a44:	45                   	inc    %ebp
c0004a45:	0e                   	push   %cs
c0004a46:	20 02                	and    %al,(%edx)
c0004a48:	50                   	push   %eax
c0004a49:	0e                   	push   %cs
c0004a4a:	10 4b 0e             	adc    %cl,0xe(%ebx)
c0004a4d:	1c 42                	sbb    $0x42,%al
c0004a4f:	0e                   	push   %cs
c0004a50:	20 48 0e             	and    %cl,0xe(%eax)
c0004a53:	10 45 0a             	adc    %al,0xa(%ebp)
c0004a56:	0e                   	push   %cs
c0004a57:	08 43 c3             	or     %al,-0x3d(%ebx)
c0004a5a:	0e                   	push   %cs
c0004a5b:	04 4b                	add    $0x4b,%al
c0004a5d:	0b 00                	or     (%eax),%eax
c0004a5f:	00 30                	add    %dh,(%eax)
c0004a61:	00 00                	add    %al,(%eax)
c0004a63:	00 bc 06 00 00 18 c3 	add    %bh,-0x3ce80000(%esi,%eax,1)
c0004a6a:	ff                   	(bad)  
c0004a6b:	ff 2f                	ljmp   *(%edi)
c0004a6d:	00 00                	add    %al,(%eax)
c0004a6f:	00 00                	add    %al,(%eax)
c0004a71:	41                   	inc    %ecx
c0004a72:	0e                   	push   %cs
c0004a73:	08 83 02 43 0e 80    	or     %al,-0x7ff1bcfe(%ebx)
c0004a79:	01 4f 0e             	add    %ecx,0xe(%edi)
c0004a7c:	88 01                	mov    %al,(%ecx)
c0004a7e:	42                   	inc    %edx
c0004a7f:	0e                   	push   %cs
c0004a80:	8c 01                	mov    %es,(%ecx)
c0004a82:	41                   	inc    %ecx
c0004a83:	0e                   	push   %cs
c0004a84:	90                   	nop
c0004a85:	01 50 0e             	add    %edx,0xe(%eax)
c0004a88:	80 01 47             	addb   $0x47,(%ecx)
c0004a8b:	0e                   	push   %cs
c0004a8c:	08 41 c3             	or     %al,-0x3d(%ecx)
c0004a8f:	0e                   	push   %cs
c0004a90:	04 00                	add    $0x0,%al
c0004a92:	00 00                	add    %al,(%eax)
c0004a94:	20 00                	and    %al,(%eax)
c0004a96:	00 00                	add    %al,(%eax)
c0004a98:	f0 06                	lock push %es
c0004a9a:	00 00                	add    %al,(%eax)
c0004a9c:	f4                   	hlt    
c0004a9d:	ec                   	in     (%dx),%al
c0004a9e:	ff                   	(bad)  
c0004a9f:	ff 5d 00             	lcall  *0x0(%ebp)
c0004aa2:	00 00                	add    %al,(%eax)
c0004aa4:	00 44 0c 01          	add    %al,0x1(%esp,%ecx,1)
c0004aa8:	00 47 10             	add    %al,0x10(%edi)
c0004aab:	05 02 75 00 43       	add    $0x43007502,%eax
c0004ab0:	0f 03 75 7c          	lsl    0x7c(%ebp),%esi
c0004ab4:	06                   	push   %es
c0004ab5:	00 00                	add    %al,(%eax)
c0004ab7:	00 1c 00             	add    %bl,(%eax,%eax,1)
c0004aba:	00 00                	add    %al,(%eax)
c0004abc:	14 07                	adc    $0x7,%al
c0004abe:	00 00                	add    %al,(%eax)
c0004ac0:	10 c4                	adc    %al,%ah
c0004ac2:	ff                   	(bad)  
c0004ac3:	ff 18                	lcall  *(%eax)
c0004ac5:	00 00                	add    %al,(%eax)
c0004ac7:	00 00                	add    %al,(%eax)
c0004ac9:	43                   	inc    %ebx
c0004aca:	0e                   	push   %cs
c0004acb:	10 48 0e             	adc    %cl,0xe(%eax)
c0004ace:	1c 42                	sbb    $0x42,%al
c0004ad0:	0e                   	push   %cs
c0004ad1:	20 4a 0e             	and    %cl,0xe(%edx)
c0004ad4:	04 00                	add    $0x0,%al
c0004ad6:	00 00                	add    %al,(%eax)
c0004ad8:	10 00                	adc    %al,(%eax)
c0004ada:	00 00                	add    %al,(%eax)
c0004adc:	34 07                	xor    $0x7,%al
c0004ade:	00 00                	add    %al,(%eax)
c0004ae0:	10 c4                	adc    %al,%ah
c0004ae2:	ff                   	(bad)  
c0004ae3:	ff 02                	incl   (%edx)
c0004ae5:	00 00                	add    %al,(%eax)
c0004ae7:	00 00                	add    %al,(%eax)
c0004ae9:	00 00                	add    %al,(%eax)
c0004aeb:	00 18                	add    %bl,(%eax)
c0004aed:	00 00                	add    %al,(%eax)
c0004aef:	00 48 07             	add    %cl,0x7(%eax)
c0004af2:	00 00                	add    %al,(%eax)
c0004af4:	0c c4                	or     $0xc4,%al
c0004af6:	ff                   	(bad)  
c0004af7:	ff 16                	call   *(%esi)
c0004af9:	00 00                	add    %al,(%eax)
c0004afb:	00 00                	add    %al,(%eax)
c0004afd:	43                   	inc    %ebx
c0004afe:	0e                   	push   %cs
c0004aff:	1c 45                	sbb    $0x45,%al
c0004b01:	0e                   	push   %cs
c0004b02:	20 4d 0e             	and    %cl,0xe(%ebp)
c0004b05:	04 00                	add    $0x0,%al
c0004b07:	00 48 00             	add    %cl,0x0(%eax)
c0004b0a:	00 00                	add    %al,(%eax)
c0004b0c:	64                   	fs
c0004b0d:	07                   	pop    %es
c0004b0e:	00 00                	add    %al,(%eax)
c0004b10:	10 c4                	adc    %al,%ah
c0004b12:	ff                   	(bad)  
c0004b13:	ff a8 00 00 00 00    	ljmp   *0x0(%eax)
c0004b19:	41                   	inc    %ecx
c0004b1a:	0e                   	push   %cs
c0004b1b:	08 85 02 41 0e 0c    	or     %al,0xc0e4102(%ebp)
c0004b21:	87 03                	xchg   %eax,(%ebx)
c0004b23:	41                   	inc    %ecx
c0004b24:	0e                   	push   %cs
c0004b25:	10 86 04 41 0e 14    	adc    %al,0x140e4104(%esi)
c0004b2b:	83 05 43 0e 30 76 0e 	addl   $0xe,0x76300e43
c0004b32:	34 42                	xor    $0x42,%al
c0004b34:	0e                   	push   %cs
c0004b35:	38 42 0e             	cmp    %al,0xe(%edx)
c0004b38:	3c 41                	cmp    $0x41,%al
c0004b3a:	0e                   	push   %cs
c0004b3b:	40                   	inc    %eax
c0004b3c:	6f                   	outsl  %ds:(%esi),(%dx)
c0004b3d:	0e                   	push   %cs
c0004b3e:	30 72 0e             	xor    %dh,0xe(%edx)
c0004b41:	14 41                	adc    $0x41,%al
c0004b43:	c3                   	ret    
c0004b44:	0e                   	push   %cs
c0004b45:	10 41 c6             	adc    %al,-0x3a(%ecx)
c0004b48:	0e                   	push   %cs
c0004b49:	0c 41                	or     $0x41,%al
c0004b4b:	c7                   	(bad)  
c0004b4c:	0e                   	push   %cs
c0004b4d:	08 41 c5             	or     %al,-0x3b(%ecx)
c0004b50:	0e                   	push   %cs
c0004b51:	04 00                	add    $0x0,%al
c0004b53:	00 10                	add    %dl,(%eax)
c0004b55:	00 00                	add    %al,(%eax)
c0004b57:	00 b0 07 00 00 74    	add    %dh,0x74000007(%eax)
c0004b5d:	c4                   	(bad)  
c0004b5e:	ff                   	(bad)  
c0004b5f:	ff 17                	call   *(%edi)
c0004b61:	00 00                	add    %al,(%eax)
c0004b63:	00 00                	add    %al,(%eax)
c0004b65:	00 00                	add    %al,(%eax)
c0004b67:	00 38                	add    %bh,(%eax)
c0004b69:	00 00                	add    %al,(%eax)
c0004b6b:	00 c4                	add    %al,%ah
c0004b6d:	07                   	pop    %es
c0004b6e:	00 00                	add    %al,(%eax)
c0004b70:	80 c4 ff             	add    $0xff,%ah
c0004b73:	ff e6                	jmp    *%esi
c0004b75:	00 00                	add    %al,(%eax)
c0004b77:	00 00                	add    %al,(%eax)
c0004b79:	43                   	inc    %ebx
c0004b7a:	0e                   	push   %cs
c0004b7b:	14 51                	adc    $0x51,%al
c0004b7d:	0e                   	push   %cs
c0004b7e:	18 42 0e             	sbb    %al,0xe(%edx)
c0004b81:	1c 45                	sbb    $0x45,%al
c0004b83:	0e                   	push   %cs
c0004b84:	20 4e 0e             	and    %cl,0xe(%esi)
c0004b87:	14 46                	adc    $0x46,%al
c0004b89:	0e                   	push   %cs
c0004b8a:	18 42 0e             	sbb    %al,0xe(%edx)
c0004b8d:	1c 45                	sbb    $0x45,%al
c0004b8f:	0e                   	push   %cs
c0004b90:	20 72 0e             	and    %dh,0xe(%edx)
c0004b93:	14 4b                	adc    $0x4b,%al
c0004b95:	0e                   	push   %cs
c0004b96:	18 42 0e             	sbb    %al,0xe(%edx)
c0004b99:	1c 45                	sbb    $0x45,%al
c0004b9b:	0e                   	push   %cs
c0004b9c:	20 02                	and    %al,(%edx)
c0004b9e:	6b 0e 04             	imul   $0x4,(%esi),%ecx
c0004ba1:	00 00                	add    %al,(%eax)
c0004ba3:	00 28                	add    %ch,(%eax)
c0004ba5:	00 00                	add    %al,(%eax)
c0004ba7:	00 00                	add    %al,(%eax)
c0004ba9:	08 00                	or     %al,(%eax)
c0004bab:	00 34 c5 ff ff 32 00 	add    %dh,0x32ffff(,%eax,8)
c0004bb2:	00 00                	add    %al,(%eax)
c0004bb4:	00 43 0e             	add    %al,0xe(%ebx)
c0004bb7:	10 48 0e             	adc    %cl,0xe(%eax)
c0004bba:	18 42 0e             	sbb    %al,0xe(%edx)
c0004bbd:	1c 42                	sbb    $0x42,%al
c0004bbf:	0e                   	push   %cs
c0004bc0:	20 4d 0e             	and    %cl,0xe(%ebp)
c0004bc3:	14 42                	adc    $0x42,%al
c0004bc5:	0e                   	push   %cs
c0004bc6:	18 42 0e             	sbb    %al,0xe(%edx)
c0004bc9:	1c 42                	sbb    $0x42,%al
c0004bcb:	0e                   	push   %cs
c0004bcc:	20 4f 0e             	and    %cl,0xe(%edi)
c0004bcf:	04 14                	add    $0x14,%al
c0004bd1:	00 00                	add    %al,(%eax)
c0004bd3:	00 2c 08             	add    %ch,(%eax,%ecx,1)
c0004bd6:	00 00                	add    %al,(%eax)
c0004bd8:	48                   	dec    %eax
c0004bd9:	c5 ff ff             	(bad)  
c0004bdc:	0e                   	push   %cs
c0004bdd:	00 00                	add    %al,(%eax)
c0004bdf:	00 00                	add    %al,(%eax)
c0004be1:	43                   	inc    %ebx
c0004be2:	0e                   	push   %cs
c0004be3:	10 4a 0e             	adc    %cl,0xe(%edx)
c0004be6:	04 00                	add    $0x0,%al
c0004be8:	30 00                	xor    %al,(%eax)
c0004bea:	00 00                	add    %al,(%eax)
c0004bec:	44                   	inc    %esp
c0004bed:	08 00                	or     %al,(%eax)
c0004bef:	00 40 c5             	add    %al,-0x3b(%eax)
c0004bf2:	ff                   	(bad)  
c0004bf3:	ff 41 00             	incl   0x0(%ecx)
c0004bf6:	00 00                	add    %al,(%eax)
c0004bf8:	00 43 0e             	add    %al,0xe(%ebx)
c0004bfb:	10 51 0e             	adc    %dl,0xe(%ecx)
c0004bfe:	18 42 0e             	sbb    %al,0xe(%edx)
c0004c01:	1c 42                	sbb    $0x42,%al
c0004c03:	0e                   	push   %cs
c0004c04:	20 48 0e             	and    %cl,0xe(%eax)
c0004c07:	10 43 0a             	adc    %al,0xa(%ebx)
c0004c0a:	0e                   	push   %cs
c0004c0b:	04 4d                	add    $0x4d,%al
c0004c0d:	0b 43 0e             	or     0xe(%ebx),%eax
c0004c10:	18 42 0e             	sbb    %al,0xe(%edx)
c0004c13:	1c 42                	sbb    $0x42,%al
c0004c15:	0e                   	push   %cs
c0004c16:	20 48 0e             	and    %cl,0xe(%eax)
c0004c19:	10 00                	adc    %al,(%eax)
c0004c1b:	00 1c 00             	add    %bl,(%eax,%eax,1)
c0004c1e:	00 00                	add    %al,(%eax)
c0004c20:	78 08                	js     c0004c2a <FLOPPY_IRQ+0x886>
c0004c22:	00 00                	add    %al,(%eax)
c0004c24:	5c                   	pop    %esp
c0004c25:	c5 ff ff             	(bad)  
c0004c28:	1d 00 00 00 00       	sbb    $0x0,%eax
c0004c2d:	43                   	inc    %ebx
c0004c2e:	0e                   	push   %cs
c0004c2f:	18 4f 0e             	sbb    %cl,0xe(%edi)
c0004c32:	1c 42                	sbb    $0x42,%al
c0004c34:	0e                   	push   %cs
c0004c35:	20 48 0e             	and    %cl,0xe(%eax)
c0004c38:	04 00                	add    $0x0,%al
c0004c3a:	00 00                	add    %al,(%eax)
c0004c3c:	18 00                	sbb    %al,(%eax)
c0004c3e:	00 00                	add    %al,(%eax)
c0004c40:	98                   	cwtl   
c0004c41:	08 00                	or     %al,(%eax)
c0004c43:	00 5c c5 ff          	add    %bl,-0x1(%ebp,%eax,8)
c0004c47:	ff 1f                	lcall  *(%edi)
c0004c49:	00 00                	add    %al,(%eax)
c0004c4b:	00 00                	add    %al,(%eax)
c0004c4d:	43                   	inc    %ebx
c0004c4e:	0e                   	push   %cs
c0004c4f:	2c 4e                	sub    $0x4e,%al
c0004c51:	0e                   	push   %cs
c0004c52:	30 4d 0e             	xor    %cl,0xe(%ebp)
c0004c55:	04 00                	add    $0x0,%al
c0004c57:	00 10                	add    %dl,(%eax)
c0004c59:	00 00                	add    %al,(%eax)
c0004c5b:	00 b4 08 00 00 60 c5 	add    %dh,-0x3aa00000(%eax,%ecx,1)
c0004c62:	ff                   	(bad)  
c0004c63:	ff 17                	call   *(%edi)
c0004c65:	00 00                	add    %al,(%eax)
c0004c67:	00 00                	add    %al,(%eax)
c0004c69:	00 00                	add    %al,(%eax)
c0004c6b:	00 10                	add    %dl,(%eax)
c0004c6d:	00 00                	add    %al,(%eax)
c0004c6f:	00 c8                	add    %cl,%al
c0004c71:	08 00                	or     %al,(%eax)
c0004c73:	00 6c c5 ff          	add    %ch,-0x1(%ebp,%eax,8)
c0004c77:	ff 05 00 00 00 00    	incl   0x0
c0004c7d:	00 00                	add    %al,(%eax)
c0004c7f:	00 10                	add    %dl,(%eax)
c0004c81:	00 00                	add    %al,(%eax)
c0004c83:	00 dc                	add    %bl,%ah
c0004c85:	08 00                	or     %al,(%eax)
c0004c87:	00 68 c5             	add    %ch,-0x3b(%eax)
c0004c8a:	ff                   	(bad)  
c0004c8b:	ff 05 00 00 00 00    	incl   0x0
c0004c91:	00 00                	add    %al,(%eax)
c0004c93:	00 20                	add    %ah,(%eax)
c0004c95:	00 00                	add    %al,(%eax)
c0004c97:	00 f0                	add    %dh,%al
c0004c99:	08 00                	or     %al,(%eax)
c0004c9b:	00 64 c5 ff          	add    %ah,-0x1(%ebp,%eax,8)
c0004c9f:	ff 1b                	lcall  *(%ebx)
c0004ca1:	00 00                	add    %al,(%eax)
c0004ca3:	00 00                	add    %al,(%eax)
c0004ca5:	43                   	inc    %ebx
c0004ca6:	0e                   	push   %cs
c0004ca7:	10 44 0e 14          	adc    %al,0x14(%esi,%ecx,1)
c0004cab:	42                   	inc    %edx
c0004cac:	0e                   	push   %cs
c0004cad:	18 45 0e             	sbb    %al,0xe(%ebp)
c0004cb0:	1c 44                	sbb    $0x44,%al
c0004cb2:	0e                   	push   %cs
c0004cb3:	20 48 0e             	and    %cl,0xe(%eax)
c0004cb6:	04 00                	add    $0x0,%al
c0004cb8:	1c 00                	sbb    $0x0,%al
c0004cba:	00 00                	add    %al,(%eax)
c0004cbc:	14 09                	adc    $0x9,%al
c0004cbe:	00 00                	add    %al,(%eax)
c0004cc0:	60                   	pusha  
c0004cc1:	c5 ff ff             	(bad)  
c0004cc4:	34 00                	xor    $0x0,%al
c0004cc6:	00 00                	add    %al,(%eax)
c0004cc8:	00 43 0e             	add    %al,0xe(%ebx)
c0004ccb:	1c 44                	sbb    $0x44,%al
c0004ccd:	0e                   	push   %cs
c0004cce:	20 48 0e             	and    %cl,0xe(%eax)
c0004cd1:	10 53 0a             	adc    %dl,0xa(%ebx)
c0004cd4:	0e                   	push   %cs
c0004cd5:	04 4e                	add    $0x4e,%al
c0004cd7:	0b 10                	or     (%eax),%edx
c0004cd9:	00 00                	add    %al,(%eax)
c0004cdb:	00 34 09             	add    %dh,(%ecx,%ecx,1)
c0004cde:	00 00                	add    %al,(%eax)
c0004ce0:	80 c5 ff             	add    $0xff,%ch
c0004ce3:	ff 05 00 00 00 00    	incl   0x0
c0004ce9:	00 00                	add    %al,(%eax)
c0004ceb:	00 10                	add    %dl,(%eax)
c0004ced:	00 00                	add    %al,(%eax)
c0004cef:	00 48 09             	add    %cl,0x9(%eax)
c0004cf2:	00 00                	add    %al,(%eax)
c0004cf4:	7c c5                	jl     c0004cbb <FLOPPY_IRQ+0x917>
c0004cf6:	ff                   	(bad)  
c0004cf7:	ff 05 00 00 00 00    	incl   0x0
c0004cfd:	00 00                	add    %al,(%eax)
c0004cff:	00 10                	add    %dl,(%eax)
c0004d01:	00 00                	add    %al,(%eax)
c0004d03:	00 5c 09 00          	add    %bl,0x0(%ecx,%ecx,1)
c0004d07:	00 78 c5             	add    %bh,-0x3b(%eax)
c0004d0a:	ff                   	(bad)  
c0004d0b:	ff 05 00 00 00 00    	incl   0x0
c0004d11:	00 00                	add    %al,(%eax)
c0004d13:	00 24 00             	add    %ah,(%eax,%eax,1)
c0004d16:	00 00                	add    %al,(%eax)
c0004d18:	70 09                	jo     c0004d23 <FLOPPY_IRQ+0x97f>
c0004d1a:	00 00                	add    %al,(%eax)
c0004d1c:	74 c5                	je     c0004ce3 <FLOPPY_IRQ+0x93f>
c0004d1e:	ff                   	(bad)  
c0004d1f:	ff 32                	pushl  (%edx)
c0004d21:	00 00                	add    %al,(%eax)
c0004d23:	00 00                	add    %al,(%eax)
c0004d25:	43                   	inc    %ebx
c0004d26:	0e                   	push   %cs
c0004d27:	1c 42                	sbb    $0x42,%al
c0004d29:	0e                   	push   %cs
c0004d2a:	20 46 0e             	and    %al,0xe(%esi)
c0004d2d:	1c 41                	sbb    $0x41,%al
c0004d2f:	0e                   	push   %cs
c0004d30:	18 42 0e             	sbb    %al,0xe(%edx)
c0004d33:	1c 42                	sbb    $0x42,%al
c0004d35:	0e                   	push   %cs
c0004d36:	20 60 0e             	and    %ah,0xe(%eax)
c0004d39:	10 00                	adc    %al,(%eax)
c0004d3b:	00 10                	add    %dl,(%eax)
c0004d3d:	00 00                	add    %al,(%eax)
c0004d3f:	00 98 09 00 00 8c    	add    %bl,-0x73fffff7(%eax)
c0004d45:	c5 ff ff             	(bad)  
c0004d48:	1a 00                	sbb    (%eax),%al
c0004d4a:	00 00                	add    %al,(%eax)
c0004d4c:	00 00                	add    %al,(%eax)
c0004d4e:	00 00                	add    %al,(%eax)
c0004d50:	20 00                	and    %al,(%eax)
c0004d52:	00 00                	add    %al,(%eax)
c0004d54:	ac                   	lods   %ds:(%esi),%al
c0004d55:	09 00                	or     %eax,(%eax)
c0004d57:	00 98 c5 ff ff 51    	add    %bl,0x51ffffc5(%eax)
c0004d5d:	00 00                	add    %al,(%eax)
c0004d5f:	00 00                	add    %al,(%eax)
c0004d61:	41                   	inc    %ecx
c0004d62:	0e                   	push   %cs
c0004d63:	08 86 02 41 0e 0c    	or     %al,0xc0e4102(%esi)
c0004d69:	83 03 02             	addl   $0x2,(%ebx)
c0004d6c:	4d                   	dec    %ebp
c0004d6d:	c3                   	ret    
c0004d6e:	0e                   	push   %cs
c0004d6f:	08 41 c6             	or     %al,-0x3a(%ecx)
c0004d72:	0e                   	push   %cs
c0004d73:	04 30                	add    $0x30,%al
c0004d75:	00 00                	add    %al,(%eax)
c0004d77:	00 d0                	add    %dl,%al
c0004d79:	09 00                	or     %eax,(%eax)
c0004d7b:	00 d4                	add    %dl,%ah
c0004d7d:	c5 ff ff             	(bad)  
c0004d80:	81 00 00 00 00 41    	addl   $0x41000000,(%eax)
c0004d86:	0e                   	push   %cs
c0004d87:	08 83 02 48 0e 14    	or     %al,0x140e4802(%ebx)
c0004d8d:	5a                   	pop    %edx
c0004d8e:	0e                   	push   %cs
c0004d8f:	18 42 0e             	sbb    %al,0xe(%edx)
c0004d92:	1c 45                	sbb    $0x45,%al
c0004d94:	0e                   	push   %cs
c0004d95:	20 4d 0e             	and    %cl,0xe(%ebp)
c0004d98:	10 79 0e             	adc    %bh,0xe(%ecx)
c0004d9b:	1c 45                	sbb    $0x45,%al
c0004d9d:	0e                   	push   %cs
c0004d9e:	20 48 0e             	and    %cl,0xe(%eax)
c0004da1:	08 43 c3             	or     %al,-0x3d(%ebx)
c0004da4:	0e                   	push   %cs
c0004da5:	04 00                	add    $0x0,%al
c0004da7:	00 9c 00 00 00 04 0a 	add    %bl,0xa040000(%eax,%eax,1)
c0004dae:	00 00                	add    %al,(%eax)
c0004db0:	30 c6                	xor    %al,%dh
c0004db2:	ff                   	(bad)  
c0004db3:	ff 9a 01 00 00 00    	lcall  *0x1(%edx)
c0004db9:	41                   	inc    %ecx
c0004dba:	0e                   	push   %cs
c0004dbb:	08 85 02 41 0e 0c    	or     %al,0xc0e4102(%ebp)
c0004dc1:	87 03                	xchg   %eax,(%ebx)
c0004dc3:	41                   	inc    %ecx
c0004dc4:	0e                   	push   %cs
c0004dc5:	10 86 04 41 0e 14    	adc    %al,0x140e4104(%esi)
c0004dcb:	83 05 43 0e 50 5f 0e 	addl   $0xe,0x5f500e43
c0004dd2:	5c                   	pop    %esp
c0004dd3:	45                   	inc    %ebp
c0004dd4:	0e                   	push   %cs
c0004dd5:	60                   	pusha  
c0004dd6:	48                   	dec    %eax
c0004dd7:	0e                   	push   %cs
c0004dd8:	50                   	push   %eax
c0004dd9:	02 5b 0a             	add    0xa(%ebx),%bl
c0004ddc:	0e                   	push   %cs
c0004ddd:	58                   	pop    %eax
c0004dde:	41                   	inc    %ecx
c0004ddf:	0e                   	push   %cs
c0004de0:	5c                   	pop    %esp
c0004de1:	45                   	inc    %ebp
c0004de2:	0e                   	push   %cs
c0004de3:	60                   	pusha  
c0004de4:	4c                   	dec    %esp
c0004de5:	0b 5e 0a             	or     0xa(%esi),%ebx
c0004de8:	0e                   	push   %cs
c0004de9:	54                   	push   %esp
c0004dea:	45                   	inc    %ebp
c0004deb:	0e                   	push   %cs
c0004dec:	58                   	pop    %eax
c0004ded:	42                   	inc    %edx
c0004dee:	0e                   	push   %cs
c0004def:	5c                   	pop    %esp
c0004df0:	41                   	inc    %ecx
c0004df1:	0e                   	push   %cs
c0004df2:	60                   	pusha  
c0004df3:	4a                   	dec    %edx
c0004df4:	0b 53 0e             	or     0xe(%ebx),%edx
c0004df7:	5c                   	pop    %esp
c0004df8:	44                   	inc    %esp
c0004df9:	0e                   	push   %cs
c0004dfa:	60                   	pusha  
c0004dfb:	48                   	dec    %eax
c0004dfc:	0e                   	push   %cs
c0004dfd:	50                   	push   %eax
c0004dfe:	4b                   	dec    %ebx
c0004dff:	0a 0e                	or     (%esi),%cl
c0004e01:	14 43                	adc    $0x43,%al
c0004e03:	c3                   	ret    
c0004e04:	0e                   	push   %cs
c0004e05:	10 41 c6             	adc    %al,-0x3a(%ecx)
c0004e08:	0e                   	push   %cs
c0004e09:	0c 41                	or     $0x41,%al
c0004e0b:	c7                   	(bad)  
c0004e0c:	0e                   	push   %cs
c0004e0d:	08 41 c5             	or     %al,-0x3b(%ecx)
c0004e10:	0e                   	push   %cs
c0004e11:	04 50                	add    $0x50,%al
c0004e13:	0b 5e 0e             	or     0xe(%esi),%ebx
c0004e16:	54                   	push   %esp
c0004e17:	45                   	inc    %ebp
c0004e18:	0e                   	push   %cs
c0004e19:	58                   	pop    %eax
c0004e1a:	42                   	inc    %edx
c0004e1b:	0e                   	push   %cs
c0004e1c:	5c                   	pop    %esp
c0004e1d:	41                   	inc    %ecx
c0004e1e:	0e                   	push   %cs
c0004e1f:	60                   	pusha  
c0004e20:	46                   	inc    %esi
c0004e21:	0e                   	push   %cs
c0004e22:	5c                   	pop    %esp
c0004e23:	41                   	inc    %ecx
c0004e24:	0e                   	push   %cs
c0004e25:	58                   	pop    %eax
c0004e26:	48                   	dec    %eax
c0004e27:	0e                   	push   %cs
c0004e28:	5c                   	pop    %esp
c0004e29:	47                   	inc    %edi
c0004e2a:	0e                   	push   %cs
c0004e2b:	60                   	pusha  
c0004e2c:	46                   	inc    %esi
c0004e2d:	0e                   	push   %cs
c0004e2e:	5c                   	pop    %esp
c0004e2f:	45                   	inc    %ebp
c0004e30:	0e                   	push   %cs
c0004e31:	60                   	pusha  
c0004e32:	48                   	dec    %eax
c0004e33:	0e                   	push   %cs
c0004e34:	50                   	push   %eax
c0004e35:	74 0e                	je     c0004e45 <FLOPPY_IRQ+0xaa1>
c0004e37:	14 43                	adc    $0x43,%al
c0004e39:	c3                   	ret    
c0004e3a:	0e                   	push   %cs
c0004e3b:	10 41 c6             	adc    %al,-0x3a(%ecx)
c0004e3e:	0e                   	push   %cs
c0004e3f:	0c 41                	or     $0x41,%al
c0004e41:	c7                   	(bad)  
c0004e42:	0e                   	push   %cs
c0004e43:	08 41 c5             	or     %al,-0x3b(%ecx)
c0004e46:	0e                   	push   %cs
c0004e47:	04 3c                	add    $0x3c,%al
c0004e49:	00 00                	add    %al,(%eax)
c0004e4b:	00 a4 0a 00 00 30 c7 	add    %ah,-0x38d00000(%edx,%ecx,1)
c0004e52:	ff                   	(bad)  
c0004e53:	ff 5e 02             	lcall  *0x2(%esi)
c0004e56:	00 00                	add    %al,(%eax)
c0004e58:	00 41 0e             	add    %al,0xe(%ecx)
c0004e5b:	08 85 02 41 0e 0c    	or     %al,0xc0e4102(%ebp)
c0004e61:	87 03                	xchg   %eax,(%ebx)
c0004e63:	41                   	inc    %ecx
c0004e64:	0e                   	push   %cs
c0004e65:	10 86 04 41 0e 14    	adc    %al,0x140e4104(%esi)
c0004e6b:	83 05 43 0e 24 03 15 	addl   $0x15,0x3240e43
c0004e72:	01 0a                	add    %ecx,(%edx)
c0004e74:	0e                   	push   %cs
c0004e75:	14 43                	adc    $0x43,%al
c0004e77:	c3                   	ret    
c0004e78:	0e                   	push   %cs
c0004e79:	10 41 c6             	adc    %al,-0x3a(%ecx)
c0004e7c:	0e                   	push   %cs
c0004e7d:	0c 41                	or     $0x41,%al
c0004e7f:	c7                   	(bad)  
c0004e80:	0e                   	push   %cs
c0004e81:	08 41 c5             	or     %al,-0x3b(%ecx)
c0004e84:	0e                   	push   %cs
c0004e85:	04 4e                	add    $0x4e,%al
c0004e87:	0b 3c 00             	or     (%eax,%eax,1),%edi
c0004e8a:	00 00                	add    %al,(%eax)
c0004e8c:	e4 0a                	in     $0xa,%al
c0004e8e:	00 00                	add    %al,(%eax)
c0004e90:	50                   	push   %eax
c0004e91:	c9                   	leave  
c0004e92:	ff                   	(bad)  
c0004e93:	ff 69 02             	ljmp   *0x2(%ecx)
c0004e96:	00 00                	add    %al,(%eax)
c0004e98:	00 41 0e             	add    %al,0xe(%ecx)
c0004e9b:	08 85 02 41 0e 0c    	or     %al,0xc0e4102(%ebp)
c0004ea1:	87 03                	xchg   %eax,(%ebx)
c0004ea3:	41                   	inc    %ecx
c0004ea4:	0e                   	push   %cs
c0004ea5:	10 86 04 41 0e 14    	adc    %al,0x140e4104(%esi)
c0004eab:	83 05 43 0e 20 03 14 	addl   $0x14,0x3200e43
c0004eb2:	01 0a                	add    %ecx,(%edx)
c0004eb4:	0e                   	push   %cs
c0004eb5:	14 43                	adc    $0x43,%al
c0004eb7:	c3                   	ret    
c0004eb8:	0e                   	push   %cs
c0004eb9:	10 41 c6             	adc    %al,-0x3a(%ecx)
c0004ebc:	0e                   	push   %cs
c0004ebd:	0c 41                	or     $0x41,%al
c0004ebf:	c7                   	(bad)  
c0004ec0:	0e                   	push   %cs
c0004ec1:	08 41 c5             	or     %al,-0x3b(%ecx)
c0004ec4:	0e                   	push   %cs
c0004ec5:	04 4f                	add    $0x4f,%al
c0004ec7:	0b 1c 00             	or     (%eax,%eax,1),%ebx
c0004eca:	00 00                	add    %al,(%eax)
c0004ecc:	24 0b                	and    $0xb,%al
c0004ece:	00 00                	add    %al,(%eax)
c0004ed0:	80 cb ff             	or     $0xff,%bl
c0004ed3:	ff 11                	call   *(%ecx)
c0004ed5:	00 00                	add    %al,(%eax)
c0004ed7:	00 00                	add    %al,(%eax)
c0004ed9:	42                   	inc    %edx
c0004eda:	0e                   	push   %cs
c0004edb:	08 42 0e             	or     %al,0xe(%edx)
c0004ede:	0c 44                	or     $0x44,%al
c0004ee0:	0e                   	push   %cs
c0004ee1:	10 48 0e             	adc    %cl,0xe(%eax)
c0004ee4:	04 00                	add    $0x0,%al
c0004ee6:	00 00                	add    %al,(%eax)
c0004ee8:	10 00                	adc    %al,(%eax)
c0004eea:	00 00                	add    %al,(%eax)
c0004eec:	44                   	inc    %esp
c0004eed:	0b 00                	or     (%eax),%eax
c0004eef:	00 80 cb ff ff 2d    	add    %al,0x2dffffcb(%eax)
c0004ef5:	00 00                	add    %al,(%eax)
c0004ef7:	00 00                	add    %al,(%eax)
c0004ef9:	00 00                	add    %al,(%eax)
c0004efb:	00 10                	add    %dl,(%eax)
c0004efd:	00 00                	add    %al,(%eax)
c0004eff:	00 58 0b             	add    %bl,0xb(%eax)
c0004f02:	00 00                	add    %al,(%eax)
c0004f04:	9c                   	pushf  
c0004f05:	cb                   	lret   
c0004f06:	ff                   	(bad)  
c0004f07:	ff 2d 00 00 00 00    	ljmp   *0x0
c0004f0d:	00 00                	add    %al,(%eax)
c0004f0f:	00 10                	add    %dl,(%eax)
c0004f11:	00 00                	add    %al,(%eax)
c0004f13:	00 6c 0b 00          	add    %ch,0x0(%ebx,%ecx,1)
c0004f17:	00 b8 cb ff ff 26    	add    %bh,0x26ffffcb(%eax)
c0004f1d:	00 00                	add    %al,(%eax)
c0004f1f:	00 00                	add    %al,(%eax)
c0004f21:	00 00                	add    %al,(%eax)
c0004f23:	00 78 00             	add    %bh,0x0(%eax)
c0004f26:	00 00                	add    %al,(%eax)
c0004f28:	80 0b 00             	orb    $0x0,(%ebx)
c0004f2b:	00 d4                	add    %dl,%ah
c0004f2d:	cb                   	lret   
c0004f2e:	ff                   	(bad)  
c0004f2f:	ff 89 00 00 00 00    	decl   0x0(%ecx)
c0004f35:	41                   	inc    %ecx
c0004f36:	0e                   	push   %cs
c0004f37:	08 86 02 41 0e 0c    	or     %al,0xc0e4102(%esi)
c0004f3d:	83 03 43             	addl   $0x43,(%ebx)
c0004f40:	0e                   	push   %cs
c0004f41:	10 50 0e             	adc    %dl,0xe(%eax)
c0004f44:	18 42 0e             	sbb    %al,0xe(%edx)
c0004f47:	1c 42                	sbb    $0x42,%al
c0004f49:	0e                   	push   %cs
c0004f4a:	20 49 0e             	and    %cl,0xe(%ecx)
c0004f4d:	1c 41                	sbb    $0x41,%al
c0004f4f:	0e                   	push   %cs
c0004f50:	18 42 0e             	sbb    %al,0xe(%edx)
c0004f53:	1c 45                	sbb    $0x45,%al
c0004f55:	0e                   	push   %cs
c0004f56:	20 46 0e             	and    %al,0xe(%esi)
c0004f59:	1c 41                	sbb    $0x41,%al
c0004f5b:	0e                   	push   %cs
c0004f5c:	18 46 0e             	sbb    %al,0xe(%esi)
c0004f5f:	1c 42                	sbb    $0x42,%al
c0004f61:	0e                   	push   %cs
c0004f62:	20 46 0e             	and    %al,0xe(%esi)
c0004f65:	1c 41                	sbb    $0x41,%al
c0004f67:	0e                   	push   %cs
c0004f68:	18 41 0e             	sbb    %al,0xe(%ecx)
c0004f6b:	1c 45                	sbb    $0x45,%al
c0004f6d:	0e                   	push   %cs
c0004f6e:	20 46 0e             	and    %al,0xe(%esi)
c0004f71:	1c 41                	sbb    $0x41,%al
c0004f73:	0e                   	push   %cs
c0004f74:	18 42 0e             	sbb    %al,0xe(%edx)
c0004f77:	1c 42                	sbb    $0x42,%al
c0004f79:	0e                   	push   %cs
c0004f7a:	20 46 0e             	and    %al,0xe(%esi)
c0004f7d:	1c 41                	sbb    $0x41,%al
c0004f7f:	0e                   	push   %cs
c0004f80:	18 42 0e             	sbb    %al,0xe(%edx)
c0004f83:	1c 45                	sbb    $0x45,%al
c0004f85:	0e                   	push   %cs
c0004f86:	20 46 0e             	and    %al,0xe(%esi)
c0004f89:	1c 41                	sbb    $0x41,%al
c0004f8b:	0e                   	push   %cs
c0004f8c:	18 42 0e             	sbb    %al,0xe(%edx)
c0004f8f:	1c 42                	sbb    $0x42,%al
c0004f91:	0e                   	push   %cs
c0004f92:	20 58 0e             	and    %bl,0xe(%eax)
c0004f95:	0c 41                	or     $0x41,%al
c0004f97:	c3                   	ret    
c0004f98:	0e                   	push   %cs
c0004f99:	08 41 c6             	or     %al,-0x3a(%ecx)
c0004f9c:	0e                   	push   %cs
c0004f9d:	04 00                	add    $0x0,%al
c0004f9f:	00 18                	add    %bl,(%eax)
c0004fa1:	00 00                	add    %al,(%eax)
c0004fa3:	00 fc                	add    %bh,%ah
c0004fa5:	0b 00                	or     (%eax),%eax
c0004fa7:	00 e8                	add    %ch,%al
c0004fa9:	cb                   	lret   
c0004faa:	ff                   	(bad)  
c0004fab:	ff 1b                	lcall  *(%ebx)
c0004fad:	00 00                	add    %al,(%eax)
c0004faf:	00 00                	add    %al,(%eax)
c0004fb1:	43                   	inc    %ebx
c0004fb2:	0e                   	push   %cs
c0004fb3:	1c 47                	sbb    $0x47,%al
c0004fb5:	0e                   	push   %cs
c0004fb6:	20 50 0e             	and    %dl,0xe(%eax)
c0004fb9:	04 00                	add    $0x0,%al
c0004fbb:	00 10                	add    %dl,(%eax)
c0004fbd:	00 00                	add    %al,(%eax)
c0004fbf:	00 18                	add    %bl,(%eax)
c0004fc1:	0c 00                	or     $0x0,%al
c0004fc3:	00 ec                	add    %ch,%ah
c0004fc5:	cb                   	lret   
c0004fc6:	ff                   	(bad)  
c0004fc7:	ff 10                	call   *(%eax)
c0004fc9:	00 00                	add    %al,(%eax)
c0004fcb:	00 00                	add    %al,(%eax)
c0004fcd:	00 00                	add    %al,(%eax)
c0004fcf:	00 10                	add    %dl,(%eax)
c0004fd1:	00 00                	add    %al,(%eax)
c0004fd3:	00 2c 0c             	add    %ch,(%esp,%ecx,1)
c0004fd6:	00 00                	add    %al,(%eax)
c0004fd8:	e8 cb ff ff 06       	call   c7004fa8 <_CurrentDrive+0x6ffc6dc>
c0004fdd:	00 00                	add    %al,(%eax)
c0004fdf:	00 00                	add    %al,(%eax)
c0004fe1:	00 00                	add    %al,(%eax)
c0004fe3:	00 1c 00             	add    %bl,(%eax,%eax,1)
c0004fe6:	00 00                	add    %al,(%eax)
c0004fe8:	40                   	inc    %eax
c0004fe9:	0c 00                	or     $0x0,%al
c0004feb:	00 e4                	add    %ah,%ah
c0004fed:	cb                   	lret   
c0004fee:	ff                   	(bad)  
c0004fef:	ff 14 00             	call   *(%eax,%eax,1)
c0004ff2:	00 00                	add    %al,(%eax)
c0004ff4:	00 43 0e             	add    %al,0xe(%ebx)
c0004ff7:	18 46 0e             	sbb    %al,0xe(%esi)
c0004ffa:	1c 42                	sbb    $0x42,%al
c0004ffc:	0e                   	push   %cs
c0004ffd:	20 48 0e             	and    %cl,0xe(%eax)
c0005000:	04 00                	add    $0x0,%al
c0005002:	00 00                	add    %al,(%eax)
c0005004:	10 00                	adc    %al,(%eax)
c0005006:	00 00                	add    %al,(%eax)
c0005008:	60                   	pusha  
c0005009:	0c 00                	or     $0x0,%al
c000500b:	00 e4                	add    %ah,%ah
c000500d:	cb                   	lret   
c000500e:	ff                   	(bad)  
c000500f:	ff 2c 00             	ljmp   *(%eax,%eax,1)
c0005012:	00 00                	add    %al,(%eax)
c0005014:	00 00                	add    %al,(%eax)
c0005016:	00 00                	add    %al,(%eax)
c0005018:	10 00                	adc    %al,(%eax)
c000501a:	00 00                	add    %al,(%eax)
c000501c:	74 0c                	je     c000502a <FLOPPY_IRQ+0xc86>
c000501e:	00 00                	add    %al,(%eax)
c0005020:	00 cc                	add    %cl,%ah
c0005022:	ff                   	(bad)  
c0005023:	ff 23                	jmp    *(%ebx)
c0005025:	00 00                	add    %al,(%eax)
c0005027:	00 00                	add    %al,(%eax)
c0005029:	00 00                	add    %al,(%eax)
c000502b:	00 4c 00 00          	add    %cl,0x0(%eax,%eax,1)
c000502f:	00 88 0c 00 00 1c    	add    %cl,0x1c00000c(%eax)
c0005035:	cc                   	int3   
c0005036:	ff                   	(bad)  
c0005037:	ff 64 00 00          	jmp    *0x0(%eax,%eax,1)
c000503b:	00 00                	add    %al,(%eax)
c000503d:	41                   	inc    %ecx
c000503e:	0e                   	push   %cs
c000503f:	08 87 02 41 0e 0c    	or     %al,0xc0e4102(%edi)
c0005045:	86 03                	xchg   %al,(%ebx)
c0005047:	41                   	inc    %ecx
c0005048:	0e                   	push   %cs
c0005049:	10 83 04 63 0e 18    	adc    %al,0x180e6304(%ebx)
c000504f:	46                   	inc    %esi
c0005050:	0e                   	push   %cs
c0005051:	1c 42                	sbb    $0x42,%al
c0005053:	0e                   	push   %cs
c0005054:	20 48 0e             	and    %cl,0xe(%eax)
c0005057:	1c 41                	sbb    $0x41,%al
c0005059:	0e                   	push   %cs
c000505a:	18 48 0e             	sbb    %cl,0xe(%eax)
c000505d:	1c 42                	sbb    $0x42,%al
c000505f:	0e                   	push   %cs
c0005060:	20 49 0e             	and    %cl,0xe(%ecx)
c0005063:	1c 41                	sbb    $0x41,%al
c0005065:	0e                   	push   %cs
c0005066:	18 41 0e             	sbb    %al,0xe(%ecx)
c0005069:	1c 42                	sbb    $0x42,%al
c000506b:	0e                   	push   %cs
c000506c:	20 52 0e             	and    %dl,0xe(%edx)
c000506f:	10 41 c3             	adc    %al,-0x3d(%ecx)
c0005072:	0e                   	push   %cs
c0005073:	0c 41                	or     $0x41,%al
c0005075:	c6                   	(bad)  
c0005076:	0e                   	push   %cs
c0005077:	08 41 c7             	or     %al,-0x39(%ecx)
c000507a:	0e                   	push   %cs
c000507b:	04 1c                	add    $0x1c,%al
c000507d:	00 00                	add    %al,(%eax)
c000507f:	00 d8                	add    %bl,%al
c0005081:	0c 00                	or     $0x0,%al
c0005083:	00 3c cc             	add    %bh,(%esp,%ecx,8)
c0005086:	ff                   	(bad)  
c0005087:	ff 1a                	lcall  *(%edx)
c0005089:	00 00                	add    %al,(%eax)
c000508b:	00 00                	add    %al,(%eax)
c000508d:	43                   	inc    %ebx
c000508e:	0e                   	push   %cs
c000508f:	18 45 0e             	sbb    %al,0xe(%ebp)
c0005092:	1c 42                	sbb    $0x42,%al
c0005094:	0e                   	push   %cs
c0005095:	20 4f 0e             	and    %cl,0xe(%edi)
c0005098:	04 00                	add    $0x0,%al
c000509a:	00 00                	add    %al,(%eax)
c000509c:	10 00                	adc    %al,(%eax)
c000509e:	00 00                	add    %al,(%eax)
c00050a0:	f8                   	clc    
c00050a1:	0c 00                	or     $0x0,%al
c00050a3:	00 3c cc             	add    %bh,(%esp,%ecx,8)
c00050a6:	ff                   	(bad)  
c00050a7:	ff 08                	decl   (%eax)
c00050a9:	00 00                	add    %al,(%eax)
c00050ab:	00 00                	add    %al,(%eax)
c00050ad:	00 00                	add    %al,(%eax)
c00050af:	00 18                	add    %bl,(%eax)
c00050b1:	00 00                	add    %al,(%eax)
c00050b3:	00 0c 0d 00 00 38 cc 	add    %cl,-0x33c80000(,%ecx,1)
c00050ba:	ff                   	(bad)  
c00050bb:	ff 12                	call   *(%edx)
c00050bd:	00 00                	add    %al,(%eax)
c00050bf:	00 00                	add    %al,(%eax)
c00050c1:	43                   	inc    %ebx
c00050c2:	0e                   	push   %cs
c00050c3:	1c 45                	sbb    $0x45,%al
c00050c5:	0e                   	push   %cs
c00050c6:	20 48 0e             	and    %cl,0xe(%eax)
c00050c9:	10 00                	adc    %al,(%eax)
c00050cb:	00 18                	add    %bl,(%eax)
c00050cd:	00 00                	add    %al,(%eax)
c00050cf:	00 28                	add    %ch,(%eax)
c00050d1:	0d 00 00 3c cc       	or     $0xcc3c0000,%eax
c00050d6:	ff                   	(bad)  
c00050d7:	ff 12                	call   *(%edx)
c00050d9:	00 00                	add    %al,(%eax)
c00050db:	00 00                	add    %al,(%eax)
c00050dd:	43                   	inc    %ebx
c00050de:	0e                   	push   %cs
c00050df:	1c 45                	sbb    $0x45,%al
c00050e1:	0e                   	push   %cs
c00050e2:	20 48 0e             	and    %cl,0xe(%eax)
c00050e5:	10 00                	adc    %al,(%eax)
c00050e7:	00 18                	add    %bl,(%eax)
c00050e9:	00 00                	add    %al,(%eax)
c00050eb:	00 44 0d 00          	add    %al,0x0(%ebp,%ecx,1)
c00050ef:	00 40 cc             	add    %al,-0x34(%eax)
c00050f2:	ff                   	(bad)  
c00050f3:	ff 12                	call   *(%edx)
c00050f5:	00 00                	add    %al,(%eax)
c00050f7:	00 00                	add    %al,(%eax)
c00050f9:	43                   	inc    %ebx
c00050fa:	0e                   	push   %cs
c00050fb:	1c 45                	sbb    $0x45,%al
c00050fd:	0e                   	push   %cs
c00050fe:	20 48 0e             	and    %cl,0xe(%eax)
c0005101:	10 00                	adc    %al,(%eax)
c0005103:	00 18                	add    %bl,(%eax)
c0005105:	00 00                	add    %al,(%eax)
c0005107:	00 60 0d             	add    %ah,0xd(%eax)
c000510a:	00 00                	add    %al,(%eax)
c000510c:	44                   	inc    %esp
c000510d:	cc                   	int3   
c000510e:	ff                   	(bad)  
c000510f:	ff 12                	call   *(%edx)
c0005111:	00 00                	add    %al,(%eax)
c0005113:	00 00                	add    %al,(%eax)
c0005115:	43                   	inc    %ebx
c0005116:	0e                   	push   %cs
c0005117:	1c 45                	sbb    $0x45,%al
c0005119:	0e                   	push   %cs
c000511a:	20 48 0e             	and    %cl,0xe(%eax)
c000511d:	10 00                	adc    %al,(%eax)
c000511f:	00 18                	add    %bl,(%eax)
c0005121:	00 00                	add    %al,(%eax)
c0005123:	00 7c 0d 00          	add    %bh,0x0(%ebp,%ecx,1)
c0005127:	00 48 cc             	add    %cl,-0x34(%eax)
c000512a:	ff                   	(bad)  
c000512b:	ff 12                	call   *(%edx)
c000512d:	00 00                	add    %al,(%eax)
c000512f:	00 00                	add    %al,(%eax)
c0005131:	43                   	inc    %ebx
c0005132:	0e                   	push   %cs
c0005133:	1c 45                	sbb    $0x45,%al
c0005135:	0e                   	push   %cs
c0005136:	20 48 0e             	and    %cl,0xe(%eax)
c0005139:	10 00                	adc    %al,(%eax)
c000513b:	00 18                	add    %bl,(%eax)
c000513d:	00 00                	add    %al,(%eax)
c000513f:	00 98 0d 00 00 4c    	add    %bl,0x4c00000d(%eax)
c0005145:	cc                   	int3   
c0005146:	ff                   	(bad)  
c0005147:	ff 12                	call   *(%edx)
c0005149:	00 00                	add    %al,(%eax)
c000514b:	00 00                	add    %al,(%eax)
c000514d:	43                   	inc    %ebx
c000514e:	0e                   	push   %cs
c000514f:	1c 45                	sbb    $0x45,%al
c0005151:	0e                   	push   %cs
c0005152:	20 48 0e             	and    %cl,0xe(%eax)
c0005155:	10 00                	adc    %al,(%eax)
c0005157:	00 18                	add    %bl,(%eax)
c0005159:	00 00                	add    %al,(%eax)
c000515b:	00 b4 0d 00 00 50 cc 	add    %dh,-0x33b00000(%ebp,%ecx,1)
c0005162:	ff                   	(bad)  
c0005163:	ff 12                	call   *(%edx)
c0005165:	00 00                	add    %al,(%eax)
c0005167:	00 00                	add    %al,(%eax)
c0005169:	43                   	inc    %ebx
c000516a:	0e                   	push   %cs
c000516b:	1c 45                	sbb    $0x45,%al
c000516d:	0e                   	push   %cs
c000516e:	20 48 0e             	and    %cl,0xe(%eax)
c0005171:	10 00                	adc    %al,(%eax)
c0005173:	00 18                	add    %bl,(%eax)
c0005175:	00 00                	add    %al,(%eax)
c0005177:	00 d0                	add    %dl,%al
c0005179:	0d 00 00 54 cc       	or     $0xcc540000,%eax
c000517e:	ff                   	(bad)  
c000517f:	ff 12                	call   *(%edx)
c0005181:	00 00                	add    %al,(%eax)
c0005183:	00 00                	add    %al,(%eax)
c0005185:	43                   	inc    %ebx
c0005186:	0e                   	push   %cs
c0005187:	1c 45                	sbb    $0x45,%al
c0005189:	0e                   	push   %cs
c000518a:	20 48 0e             	and    %cl,0xe(%eax)
c000518d:	10 00                	adc    %al,(%eax)
c000518f:	00 18                	add    %bl,(%eax)
c0005191:	00 00                	add    %al,(%eax)
c0005193:	00 ec                	add    %ch,%ah
c0005195:	0d 00 00 58 cc       	or     $0xcc580000,%eax
c000519a:	ff                   	(bad)  
c000519b:	ff 12                	call   *(%edx)
c000519d:	00 00                	add    %al,(%eax)
c000519f:	00 00                	add    %al,(%eax)
c00051a1:	43                   	inc    %ebx
c00051a2:	0e                   	push   %cs
c00051a3:	1c 45                	sbb    $0x45,%al
c00051a5:	0e                   	push   %cs
c00051a6:	20 48 0e             	and    %cl,0xe(%eax)
c00051a9:	10 00                	adc    %al,(%eax)
c00051ab:	00 18                	add    %bl,(%eax)
c00051ad:	00 00                	add    %al,(%eax)
c00051af:	00 08                	add    %cl,(%eax)
c00051b1:	0e                   	push   %cs
c00051b2:	00 00                	add    %al,(%eax)
c00051b4:	5c                   	pop    %esp
c00051b5:	cc                   	int3   
c00051b6:	ff                   	(bad)  
c00051b7:	ff 12                	call   *(%edx)
c00051b9:	00 00                	add    %al,(%eax)
c00051bb:	00 00                	add    %al,(%eax)
c00051bd:	43                   	inc    %ebx
c00051be:	0e                   	push   %cs
c00051bf:	1c 45                	sbb    $0x45,%al
c00051c1:	0e                   	push   %cs
c00051c2:	20 48 0e             	and    %cl,0xe(%eax)
c00051c5:	10 00                	adc    %al,(%eax)
c00051c7:	00 18                	add    %bl,(%eax)
c00051c9:	00 00                	add    %al,(%eax)
c00051cb:	00 24 0e             	add    %ah,(%esi,%ecx,1)
c00051ce:	00 00                	add    %al,(%eax)
c00051d0:	60                   	pusha  
c00051d1:	cc                   	int3   
c00051d2:	ff                   	(bad)  
c00051d3:	ff 12                	call   *(%edx)
c00051d5:	00 00                	add    %al,(%eax)
c00051d7:	00 00                	add    %al,(%eax)
c00051d9:	43                   	inc    %ebx
c00051da:	0e                   	push   %cs
c00051db:	1c 45                	sbb    $0x45,%al
c00051dd:	0e                   	push   %cs
c00051de:	20 48 0e             	and    %cl,0xe(%eax)
c00051e1:	10 00                	adc    %al,(%eax)
c00051e3:	00 18                	add    %bl,(%eax)
c00051e5:	00 00                	add    %al,(%eax)
c00051e7:	00 40 0e             	add    %al,0xe(%eax)
c00051ea:	00 00                	add    %al,(%eax)
c00051ec:	64                   	fs
c00051ed:	cc                   	int3   
c00051ee:	ff                   	(bad)  
c00051ef:	ff 12                	call   *(%edx)
c00051f1:	00 00                	add    %al,(%eax)
c00051f3:	00 00                	add    %al,(%eax)
c00051f5:	43                   	inc    %ebx
c00051f6:	0e                   	push   %cs
c00051f7:	1c 45                	sbb    $0x45,%al
c00051f9:	0e                   	push   %cs
c00051fa:	20 48 0e             	and    %cl,0xe(%eax)
c00051fd:	10 00                	adc    %al,(%eax)
c00051ff:	00 18                	add    %bl,(%eax)
c0005201:	00 00                	add    %al,(%eax)
c0005203:	00 5c 0e 00          	add    %bl,0x0(%esi,%ecx,1)
c0005207:	00 68 cc             	add    %ch,-0x34(%eax)
c000520a:	ff                   	(bad)  
c000520b:	ff 12                	call   *(%edx)
c000520d:	00 00                	add    %al,(%eax)
c000520f:	00 00                	add    %al,(%eax)
c0005211:	43                   	inc    %ebx
c0005212:	0e                   	push   %cs
c0005213:	1c 45                	sbb    $0x45,%al
c0005215:	0e                   	push   %cs
c0005216:	20 48 0e             	and    %cl,0xe(%eax)
c0005219:	10 00                	adc    %al,(%eax)
c000521b:	00 18                	add    %bl,(%eax)
c000521d:	00 00                	add    %al,(%eax)
c000521f:	00 78 0e             	add    %bh,0xe(%eax)
c0005222:	00 00                	add    %al,(%eax)
c0005224:	6c                   	insb   (%dx),%es:(%edi)
c0005225:	cc                   	int3   
c0005226:	ff                   	(bad)  
c0005227:	ff 12                	call   *(%edx)
c0005229:	00 00                	add    %al,(%eax)
c000522b:	00 00                	add    %al,(%eax)
c000522d:	43                   	inc    %ebx
c000522e:	0e                   	push   %cs
c000522f:	1c 45                	sbb    $0x45,%al
c0005231:	0e                   	push   %cs
c0005232:	20 48 0e             	and    %cl,0xe(%eax)
c0005235:	10 00                	adc    %al,(%eax)
c0005237:	00 18                	add    %bl,(%eax)
c0005239:	00 00                	add    %al,(%eax)
c000523b:	00 94 0e 00 00 70 cc 	add    %dl,-0x33900000(%esi,%ecx,1)
c0005242:	ff                   	(bad)  
c0005243:	ff 12                	call   *(%edx)
c0005245:	00 00                	add    %al,(%eax)
c0005247:	00 00                	add    %al,(%eax)
c0005249:	43                   	inc    %ebx
c000524a:	0e                   	push   %cs
c000524b:	1c 45                	sbb    $0x45,%al
c000524d:	0e                   	push   %cs
c000524e:	20 48 0e             	and    %cl,0xe(%eax)
c0005251:	10 00                	adc    %al,(%eax)
c0005253:	00 18                	add    %bl,(%eax)
c0005255:	00 00                	add    %al,(%eax)
c0005257:	00 b0 0e 00 00 74    	add    %dh,0x7400000e(%eax)
c000525d:	cc                   	int3   
c000525e:	ff                   	(bad)  
c000525f:	ff 12                	call   *(%edx)
c0005261:	00 00                	add    %al,(%eax)
c0005263:	00 00                	add    %al,(%eax)
c0005265:	43                   	inc    %ebx
c0005266:	0e                   	push   %cs
c0005267:	1c 45                	sbb    $0x45,%al
c0005269:	0e                   	push   %cs
c000526a:	20 48 0e             	and    %cl,0xe(%eax)
c000526d:	10 00                	adc    %al,(%eax)
c000526f:	00 18                	add    %bl,(%eax)
c0005271:	00 00                	add    %al,(%eax)
c0005273:	00 cc                	add    %cl,%ah
c0005275:	0e                   	push   %cs
c0005276:	00 00                	add    %al,(%eax)
c0005278:	78 cc                	js     c0005246 <FLOPPY_IRQ+0xea2>
c000527a:	ff                   	(bad)  
c000527b:	ff 12                	call   *(%edx)
c000527d:	00 00                	add    %al,(%eax)
c000527f:	00 00                	add    %al,(%eax)
c0005281:	43                   	inc    %ebx
c0005282:	0e                   	push   %cs
c0005283:	1c 45                	sbb    $0x45,%al
c0005285:	0e                   	push   %cs
c0005286:	20 48 0e             	and    %cl,0xe(%eax)
c0005289:	10 00                	adc    %al,(%eax)
c000528b:	00 18                	add    %bl,(%eax)
c000528d:	00 00                	add    %al,(%eax)
c000528f:	00 e8                	add    %ch,%al
c0005291:	0e                   	push   %cs
c0005292:	00 00                	add    %al,(%eax)
c0005294:	7c cc                	jl     c0005262 <FLOPPY_IRQ+0xebe>
c0005296:	ff                   	(bad)  
c0005297:	ff 12                	call   *(%edx)
c0005299:	00 00                	add    %al,(%eax)
c000529b:	00 00                	add    %al,(%eax)
c000529d:	43                   	inc    %ebx
c000529e:	0e                   	push   %cs
c000529f:	1c 45                	sbb    $0x45,%al
c00052a1:	0e                   	push   %cs
c00052a2:	20 48 0e             	and    %cl,0xe(%eax)
c00052a5:	10 00                	adc    %al,(%eax)
c00052a7:	00 34 00             	add    %dh,(%eax,%eax,1)
c00052aa:	00 00                	add    %al,(%eax)
c00052ac:	04 0f                	add    $0xf,%al
c00052ae:	00 00                	add    %al,(%eax)
c00052b0:	80 cc ff             	or     $0xff,%ah
c00052b3:	ff 4a 00             	decl   0x0(%edx)
c00052b6:	00 00                	add    %al,(%eax)
c00052b8:	00 43 0e             	add    %al,0xe(%ebx)
c00052bb:	10 48 0e             	adc    %cl,0xe(%eax)
c00052be:	1c 42                	sbb    $0x42,%al
c00052c0:	0e                   	push   %cs
c00052c1:	20 46 0e             	and    %al,0xe(%esi)
c00052c4:	1c 41                	sbb    $0x41,%al
c00052c6:	0e                   	push   %cs
c00052c7:	18 42 0e             	sbb    %al,0xe(%edx)
c00052ca:	1c 42                	sbb    $0x42,%al
c00052cc:	0e                   	push   %cs
c00052cd:	20 5e 0e             	and    %bl,0xe(%esi)
c00052d0:	1c 41                	sbb    $0x41,%al
c00052d2:	0e                   	push   %cs
c00052d3:	18 44 0e 1c          	sbb    %al,0x1c(%esi,%ecx,1)
c00052d7:	45                   	inc    %ebp
c00052d8:	0e                   	push   %cs
c00052d9:	20 48 0e             	and    %cl,0xe(%eax)
c00052dc:	10 00                	adc    %al,(%eax)
c00052de:	00 00                	add    %al,(%eax)
c00052e0:	44                   	inc    %esp
c00052e1:	00 00                	add    %al,(%eax)
c00052e3:	00 3c 0f             	add    %bh,(%edi,%ecx,1)
c00052e6:	00 00                	add    %al,(%eax)
c00052e8:	98                   	cwtl   
c00052e9:	cc                   	int3   
c00052ea:	ff                   	(bad)  
c00052eb:	ff 61 00             	jmp    *0x0(%ecx)
c00052ee:	00 00                	add    %al,(%eax)
c00052f0:	00 41 0e             	add    %al,0xe(%ecx)
c00052f3:	08 85 02 41 0e 0c    	or     %al,0xc0e4102(%ebp)
c00052f9:	87 03                	xchg   %eax,(%ebx)
c00052fb:	41                   	inc    %ecx
c00052fc:	0e                   	push   %cs
c00052fd:	10 86 04 47 0e 14    	adc    %al,0x140e4704(%esi)
c0005303:	83 05 7d 0a c3 0e 10 	addl   $0x10,0xec30a7d
c000530a:	41                   	inc    %ecx
c000530b:	c6                   	(bad)  
c000530c:	0e                   	push   %cs
c000530d:	0c 41                	or     $0x41,%al
c000530f:	c7                   	(bad)  
c0005310:	0e                   	push   %cs
c0005311:	08 41 c5             	or     %al,-0x3b(%ecx)
c0005314:	0e                   	push   %cs
c0005315:	04 46                	add    $0x46,%al
c0005317:	0b 48 c3             	or     -0x3d(%eax),%ecx
c000531a:	0e                   	push   %cs
c000531b:	10 46 c6             	adc    %al,-0x3a(%esi)
c000531e:	0e                   	push   %cs
c000531f:	0c 41                	or     $0x41,%al
c0005321:	c7                   	(bad)  
c0005322:	0e                   	push   %cs
c0005323:	08 41 c5             	or     %al,-0x3b(%ecx)
c0005326:	0e                   	push   %cs
c0005327:	04 64                	add    $0x64,%al
c0005329:	00 00                	add    %al,(%eax)
c000532b:	00 84 0f 00 00 c0 cc 	add    %al,-0x33400000(%edi,%ecx,1)
c0005332:	ff                   	(bad)  
c0005333:	ff 0c 01             	decl   (%ecx,%eax,1)
c0005336:	00 00                	add    %al,(%eax)
c0005338:	00 41 0e             	add    %al,0xe(%ecx)
c000533b:	08 85 02 41 0e 0c    	or     %al,0xc0e4102(%ebp)
c0005341:	87 03                	xchg   %eax,(%ebx)
c0005343:	41                   	inc    %ecx
c0005344:	0e                   	push   %cs
c0005345:	10 86 04 41 0e 14    	adc    %al,0x140e4104(%esi)
c000534b:	83 05 43 0e 2c 02 db 	addl   $0xffffffdb,0x22c0e43
c0005352:	0a 0e                	or     (%esi),%cl
c0005354:	14 46                	adc    $0x46,%al
c0005356:	c3                   	ret    
c0005357:	0e                   	push   %cs
c0005358:	10 41 c6             	adc    %al,-0x3a(%ecx)
c000535b:	0e                   	push   %cs
c000535c:	0c 41                	or     $0x41,%al
c000535e:	c7                   	(bad)  
c000535f:	0e                   	push   %cs
c0005360:	08 41 c5             	or     %al,-0x3b(%ecx)
c0005363:	0e                   	push   %cs
c0005364:	04 45                	add    $0x45,%al
c0005366:	0b 4b 0a             	or     0xa(%ebx),%ecx
c0005369:	0e                   	push   %cs
c000536a:	14 41                	adc    $0x41,%al
c000536c:	c3                   	ret    
c000536d:	0e                   	push   %cs
c000536e:	10 41 c6             	adc    %al,-0x3a(%ecx)
c0005371:	0e                   	push   %cs
c0005372:	0c 41                	or     $0x41,%al
c0005374:	c7                   	(bad)  
c0005375:	0e                   	push   %cs
c0005376:	08 41 c5             	or     %al,-0x3b(%ecx)
c0005379:	0e                   	push   %cs
c000537a:	04 41                	add    $0x41,%al
c000537c:	0b 43 0e             	or     0xe(%ebx),%eax
c000537f:	14 41                	adc    $0x41,%al
c0005381:	c3                   	ret    
c0005382:	0e                   	push   %cs
c0005383:	10 41 c6             	adc    %al,-0x3a(%ecx)
c0005386:	0e                   	push   %cs
c0005387:	0c 41                	or     $0x41,%al
c0005389:	c7                   	(bad)  
c000538a:	0e                   	push   %cs
c000538b:	08 41 c5             	or     %al,-0x3b(%ecx)
c000538e:	0e                   	push   %cs
c000538f:	04 1c                	add    $0x1c,%al
c0005391:	00 00                	add    %al,(%eax)
c0005393:	00 ec                	add    %ch,%ah
c0005395:	0f 00 00             	sldt   (%eax)
c0005398:	68 cd ff ff 3a       	push   $0x3affffcd
c000539d:	00 00                	add    %al,(%eax)
c000539f:	00 00                	add    %al,(%eax)
c00053a1:	43                   	inc    %ebx
c00053a2:	0e                   	push   %cs
c00053a3:	14 5c                	adc    $0x5c,%al
c00053a5:	0e                   	push   %cs
c00053a6:	18 42 0e             	sbb    %al,0xe(%edx)
c00053a9:	1c 44                	sbb    $0x44,%al
c00053ab:	0e                   	push   %cs
c00053ac:	20 54 0e 04          	and    %dl,0x4(%esi,%ecx,1)
c00053b0:	38 00                	cmp    %al,(%eax)
c00053b2:	00 00                	add    %al,(%eax)
c00053b4:	0c 10                	or     $0x10,%al
c00053b6:	00 00                	add    %al,(%eax)
c00053b8:	88 cd                	mov    %cl,%ch
c00053ba:	ff                   	(bad)  
c00053bb:	ff 5d 00             	lcall  *0x0(%ebp)
c00053be:	00 00                	add    %al,(%eax)
c00053c0:	00 41 0e             	add    %al,0xe(%ecx)
c00053c3:	08 85 02 41 0e 0c    	or     %al,0xc0e4102(%ebp)
c00053c9:	87 03                	xchg   %eax,(%ebx)
c00053cb:	41                   	inc    %ecx
c00053cc:	0e                   	push   %cs
c00053cd:	10 86 04 41 0e 14    	adc    %al,0x140e4104(%esi)
c00053d3:	83 05 48 0e 18 02 4c 	addl   $0x4c,0x2180e48
c00053da:	0e                   	push   %cs
c00053db:	14 41                	adc    $0x41,%al
c00053dd:	c3                   	ret    
c00053de:	0e                   	push   %cs
c00053df:	10 41 c6             	adc    %al,-0x3a(%ecx)
c00053e2:	0e                   	push   %cs
c00053e3:	0c 41                	or     $0x41,%al
c00053e5:	c7                   	(bad)  
c00053e6:	0e                   	push   %cs
c00053e7:	08 41 c5             	or     %al,-0x3b(%ecx)
c00053ea:	0e                   	push   %cs
c00053eb:	04 38                	add    $0x38,%al
c00053ed:	00 00                	add    %al,(%eax)
c00053ef:	00 48 10             	add    %cl,0x10(%eax)
c00053f2:	00 00                	add    %al,(%eax)
c00053f4:	ac                   	lods   %ds:(%esi),%al
c00053f5:	cd ff                	int    $0xff
c00053f7:	ff 57 00             	call   *0x0(%edi)
c00053fa:	00 00                	add    %al,(%eax)
c00053fc:	00 41 0e             	add    %al,0xe(%ecx)
c00053ff:	08 85 02 41 0e 0c    	or     %al,0xc0e4102(%ebp)
c0005405:	87 03                	xchg   %eax,(%ebx)
c0005407:	41                   	inc    %ecx
c0005408:	0e                   	push   %cs
c0005409:	10 86 04 41 0e 14    	adc    %al,0x140e4104(%esi)
c000540f:	83 05 48 0e 18 02 46 	addl   $0x46,0x2180e48
c0005416:	0e                   	push   %cs
c0005417:	14 41                	adc    $0x41,%al
c0005419:	c3                   	ret    
c000541a:	0e                   	push   %cs
c000541b:	10 41 c6             	adc    %al,-0x3a(%ecx)
c000541e:	0e                   	push   %cs
c000541f:	0c 41                	or     $0x41,%al
c0005421:	c7                   	(bad)  
c0005422:	0e                   	push   %cs
c0005423:	08 41 c5             	or     %al,-0x3b(%ecx)
c0005426:	0e                   	push   %cs
c0005427:	04 38                	add    $0x38,%al
c0005429:	00 00                	add    %al,(%eax)
c000542b:	00 84 10 00 00 d0 cd 	add    %al,-0x32300000(%eax,%edx,1)
c0005432:	ff                   	(bad)  
c0005433:	ff 66 00             	jmp    *0x0(%esi)
c0005436:	00 00                	add    %al,(%eax)
c0005438:	00 41 0e             	add    %al,0xe(%ecx)
c000543b:	08 87 02 41 0e 0c    	or     %al,0xc0e4102(%edi)
c0005441:	86 03                	xchg   %al,(%ebx)
c0005443:	41                   	inc    %ecx
c0005444:	0e                   	push   %cs
c0005445:	10 83 04 02 50 0a    	adc    %al,0xa500204(%ebx)
c000544b:	c3                   	ret    
c000544c:	0e                   	push   %cs
c000544d:	0c 41                	or     $0x41,%al
c000544f:	c6                   	(bad)  
c0005450:	0e                   	push   %cs
c0005451:	08 41 c7             	or     %al,-0x39(%ecx)
c0005454:	0e                   	push   %cs
c0005455:	04 4b                	add    $0x4b,%al
c0005457:	0b 41 c3             	or     -0x3d(%ecx),%eax
c000545a:	0e                   	push   %cs
c000545b:	0c 43                	or     $0x43,%al
c000545d:	c6                   	(bad)  
c000545e:	0e                   	push   %cs
c000545f:	08 41 c7             	or     %al,-0x39(%ecx)
c0005462:	0e                   	push   %cs
c0005463:	04 18                	add    $0x18,%al
c0005465:	00 00                	add    %al,(%eax)
c0005467:	00 c0                	add    %al,%al
c0005469:	10 00                	adc    %al,(%eax)
c000546b:	00 04 ce             	add    %al,(%esi,%ecx,8)
c000546e:	ff                   	(bad)  
c000546f:	ff 28                	ljmp   *(%eax)
c0005471:	00 00                	add    %al,(%eax)
c0005473:	00 00                	add    %al,(%eax)
c0005475:	41                   	inc    %ecx
c0005476:	0e                   	push   %cs
c0005477:	08 83 02 66 c3 0e    	or     %al,0xec36602(%ebx)
c000547d:	04 00                	add    $0x0,%al
c000547f:	00 40 00             	add    %al,0x0(%eax)
c0005482:	00 00                	add    %al,(%eax)
c0005484:	dc 10                	fcoml  (%eax)
c0005486:	00 00                	add    %al,(%eax)
c0005488:	18 ce                	sbb    %cl,%dh
c000548a:	ff                   	(bad)  
c000548b:	ff 96 00 00 00 00    	call   *0x0(%esi)
c0005491:	41                   	inc    %ecx
c0005492:	0e                   	push   %cs
c0005493:	08 85 02 41 0e 0c    	or     %al,0xc0e4102(%ebp)
c0005499:	87 03                	xchg   %eax,(%ebx)
c000549b:	41                   	inc    %ecx
c000549c:	0e                   	push   %cs
c000549d:	10 86 04 41 0e 14    	adc    %al,0x140e4104(%esi)
c00054a3:	83 05 45 0e 1c 5b 0e 	addl   $0xe,0x5b1c0e45
c00054aa:	20 46 0e             	and    %al,0xe(%esi)
c00054ad:	1c 02                	sbb    $0x2,%al
c00054af:	65                   	gs
c00054b0:	0e                   	push   %cs
c00054b1:	14 43                	adc    $0x43,%al
c00054b3:	c3                   	ret    
c00054b4:	0e                   	push   %cs
c00054b5:	10 41 c6             	adc    %al,-0x3a(%ecx)
c00054b8:	0e                   	push   %cs
c00054b9:	0c 41                	or     $0x41,%al
c00054bb:	c7                   	(bad)  
c00054bc:	0e                   	push   %cs
c00054bd:	08 41 c5             	or     %al,-0x3b(%ecx)
c00054c0:	0e                   	push   %cs
c00054c1:	04 00                	add    $0x0,%al
c00054c3:	00 34 00             	add    %dh,(%eax,%eax,1)
c00054c6:	00 00                	add    %al,(%eax)
c00054c8:	20 11                	and    %dl,(%ecx)
c00054ca:	00 00                	add    %al,(%eax)
c00054cc:	74 ce                	je     c000549c <FLOPPY_IRQ+0x10f8>
c00054ce:	ff                   	(bad)  
c00054cf:	ff 6c 00 00          	ljmp   *0x0(%eax,%eax,1)
c00054d3:	00 00                	add    %al,(%eax)
c00054d5:	41                   	inc    %ecx
c00054d6:	0e                   	push   %cs
c00054d7:	08 85 02 41 0e 0c    	or     %al,0xc0e4102(%ebp)
c00054dd:	87 03                	xchg   %eax,(%ebx)
c00054df:	41                   	inc    %ecx
c00054e0:	0e                   	push   %cs
c00054e1:	10 86 04 41 0e 14    	adc    %al,0x140e4104(%esi)
c00054e7:	83 05 02 64 c3 0e 10 	addl   $0x10,0xec36402
c00054ee:	41                   	inc    %ecx
c00054ef:	c6                   	(bad)  
c00054f0:	0e                   	push   %cs
c00054f1:	0c 41                	or     $0x41,%al
c00054f3:	c7                   	(bad)  
c00054f4:	0e                   	push   %cs
c00054f5:	08 41 c5             	or     %al,-0x3b(%ecx)
c00054f8:	0e                   	push   %cs
c00054f9:	04 00                	add    $0x0,%al
c00054fb:	00 10                	add    %dl,(%eax)
c00054fd:	00 00                	add    %al,(%eax)
c00054ff:	00 58 11             	add    %bl,0x11(%eax)
c0005502:	00 00                	add    %al,(%eax)
c0005504:	ac                   	lods   %ds:(%esi),%al
c0005505:	ce                   	into   
c0005506:	ff                   	(bad)  
c0005507:	ff 06                	incl   (%esi)
c0005509:	00 00                	add    %al,(%eax)
c000550b:	00 00                	add    %al,(%eax)
c000550d:	00 00                	add    %al,(%eax)
c000550f:	00 10                	add    %dl,(%eax)
c0005511:	00 00                	add    %al,(%eax)
c0005513:	00 6c 11 00          	add    %ch,0x0(%ecx,%edx,1)
c0005517:	00 a8 ce ff ff 06    	add    %ch,0x6ffffce(%eax)
c000551d:	00 00                	add    %al,(%eax)
c000551f:	00 00                	add    %al,(%eax)
c0005521:	00 00                	add    %al,(%eax)
c0005523:	00 10                	add    %dl,(%eax)
c0005525:	00 00                	add    %al,(%eax)
c0005527:	00 80 11 00 00 a4    	add    %al,-0x5bffffef(%eax)
c000552d:	ce                   	into   
c000552e:	ff                   	(bad)  
c000552f:	ff 06                	incl   (%esi)
c0005531:	00 00                	add    %al,(%eax)
c0005533:	00 00                	add    %al,(%eax)
c0005535:	00 00                	add    %al,(%eax)
c0005537:	00 10                	add    %dl,(%eax)
c0005539:	00 00                	add    %al,(%eax)
c000553b:	00 94 11 00 00 a0 ce 	add    %dl,-0x31600000(%ecx,%edx,1)
c0005542:	ff                   	(bad)  
c0005543:	ff 0c 00             	decl   (%eax,%eax,1)
c0005546:	00 00                	add    %al,(%eax)
c0005548:	00 00                	add    %al,(%eax)
c000554a:	00 00                	add    %al,(%eax)
c000554c:	10 00                	adc    %al,(%eax)
c000554e:	00 00                	add    %al,(%eax)
c0005550:	a8 11                	test   $0x11,%al
c0005552:	00 00                	add    %al,(%eax)
c0005554:	9c                   	pushf  
c0005555:	ce                   	into   
c0005556:	ff                   	(bad)  
c0005557:	ff 06                	incl   (%esi)
c0005559:	00 00                	add    %al,(%eax)
c000555b:	00 00                	add    %al,(%eax)
c000555d:	00 00                	add    %al,(%eax)
c000555f:	00 10                	add    %dl,(%eax)
c0005561:	00 00                	add    %al,(%eax)
c0005563:	00 bc 11 00 00 98 ce 	add    %bh,-0x31680000(%ecx,%edx,1)
c000556a:	ff                   	(bad)  
c000556b:	ff 0e                	decl   (%esi)
c000556d:	00 00                	add    %al,(%eax)
c000556f:	00 00                	add    %al,(%eax)
c0005571:	00 00                	add    %al,(%eax)
c0005573:	00 18                	add    %bl,(%eax)
c0005575:	00 00                	add    %al,(%eax)
c0005577:	00 d0                	add    %dl,%al
c0005579:	11 00                	adc    %eax,(%eax)
c000557b:	00 94 ce ff ff 22 00 	add    %dl,0x22ffff(%esi,%ecx,8)
c0005582:	00 00                	add    %al,(%eax)
c0005584:	00 43 0e             	add    %al,0xe(%ebx)
c0005587:	2c 4d                	sub    $0x4d,%al
c0005589:	0e                   	push   %cs
c000558a:	30 4c 0e 04          	xor    %cl,0x4(%esi,%ecx,1)
c000558e:	00 00                	add    %al,(%eax)
c0005590:	18 00                	sbb    %al,(%eax)
c0005592:	00 00                	add    %al,(%eax)
c0005594:	ec                   	in     (%dx),%al
c0005595:	11 00                	adc    %eax,(%eax)
c0005597:	00 a8 ce ff ff 11    	add    %ch,0x11ffffce(%eax)
c000559d:	00 00                	add    %al,(%eax)
c000559f:	00 00                	add    %al,(%eax)
c00055a1:	43                   	inc    %ebx
c00055a2:	0e                   	push   %cs
c00055a3:	1c 45                	sbb    $0x45,%al
c00055a5:	0e                   	push   %cs
c00055a6:	20 48 0e             	and    %cl,0xe(%eax)
c00055a9:	04 00                	add    $0x0,%al
c00055ab:	00 10                	add    %dl,(%eax)
c00055ad:	00 00                	add    %al,(%eax)
c00055af:	00 08                	add    %cl,(%eax)
c00055b1:	12 00                	adc    (%eax),%al
c00055b3:	00 ac ce ff ff 05 00 	add    %ch,0x5ffff(%esi,%ecx,8)
c00055ba:	00 00                	add    %al,(%eax)
c00055bc:	00 00                	add    %al,(%eax)
c00055be:	00 00                	add    %al,(%eax)
c00055c0:	10 00                	adc    %al,(%eax)
c00055c2:	00 00                	add    %al,(%eax)
c00055c4:	1c 12                	sbb    $0x12,%al
c00055c6:	00 00                	add    %al,(%eax)
c00055c8:	a8 ce                	test   $0xce,%al
c00055ca:	ff                   	(bad)  
c00055cb:	ff 23                	jmp    *(%ebx)
c00055cd:	00 00                	add    %al,(%eax)
c00055cf:	00 00                	add    %al,(%eax)
c00055d1:	00 00                	add    %al,(%eax)
c00055d3:	00 10                	add    %dl,(%eax)
c00055d5:	00 00                	add    %al,(%eax)
c00055d7:	00 30                	add    %dh,(%eax)
c00055d9:	12 00                	adc    (%eax),%al
c00055db:	00 c4                	add    %al,%ah
c00055dd:	ce                   	into   
c00055de:	ff                   	(bad)  
c00055df:	ff 23                	jmp    *(%ebx)
c00055e1:	00 00                	add    %al,(%eax)
c00055e3:	00 00                	add    %al,(%eax)
c00055e5:	00 00                	add    %al,(%eax)
c00055e7:	00 1c 00             	add    %bl,(%eax,%eax,1)
c00055ea:	00 00                	add    %al,(%eax)
c00055ec:	44                   	inc    %esp
c00055ed:	12 00                	adc    (%eax),%al
c00055ef:	00 e0                	add    %ah,%al
c00055f1:	ce                   	into   
c00055f2:	ff                   	(bad)  
c00055f3:	ff 2d 00 00 00 00    	ljmp   *0x0
c00055f9:	43                   	inc    %ebx
c00055fa:	0e                   	push   %cs
c00055fb:	10 4d 0e             	adc    %cl,0xe(%ebp)
c00055fe:	1c 46                	sbb    $0x46,%al
c0005600:	0e                   	push   %cs
c0005601:	20 4e 0e             	and    %cl,0xe(%esi)
c0005604:	10 48 0e             	adc    %cl,0xe(%eax)
c0005607:	04 10                	add    $0x10,%al
c0005609:	00 00                	add    %al,(%eax)
c000560b:	00 64 12 00          	add    %ah,0x0(%edx,%edx,1)
c000560f:	00 f0                	add    %dh,%al
c0005611:	ce                   	into   
c0005612:	ff                   	(bad)  
c0005613:	ff 05 00 00 00 00    	incl   0x0
c0005619:	00 00                	add    %al,(%eax)
c000561b:	00 10                	add    %dl,(%eax)
c000561d:	00 00                	add    %al,(%eax)
c000561f:	00 78 12             	add    %bh,0x12(%eax)
c0005622:	00 00                	add    %al,(%eax)
c0005624:	ec                   	in     (%dx),%al
c0005625:	ce                   	into   
c0005626:	ff                   	(bad)  
c0005627:	ff 06                	incl   (%esi)
c0005629:	00 00                	add    %al,(%eax)
c000562b:	00 00                	add    %al,(%eax)
c000562d:	00 00                	add    %al,(%eax)
c000562f:	00 34 00             	add    %dh,(%eax,%eax,1)
c0005632:	00 00                	add    %al,(%eax)
c0005634:	8c 12                	mov    %ss,(%edx)
c0005636:	00 00                	add    %al,(%eax)
c0005638:	e8 ce ff ff 36       	call   f700560b <_CurrentDrive+0x36ffcd3f>
c000563d:	00 00                	add    %al,(%eax)
c000563f:	00 00                	add    %al,(%eax)
c0005641:	41                   	inc    %ecx
c0005642:	0e                   	push   %cs
c0005643:	08 83 02 43 0e 10    	or     %al,0x100e4302(%ebx)
c0005649:	52                   	push   %edx
c000564a:	0e                   	push   %cs
c000564b:	18 41 0e             	sbb    %al,0xe(%ecx)
c000564e:	1c 41                	sbb    $0x41,%al
c0005650:	0e                   	push   %cs
c0005651:	20 46 0e             	and    %al,0xe(%esi)
c0005654:	1c 41                	sbb    $0x41,%al
c0005656:	0e                   	push   %cs
c0005657:	18 42 0e             	sbb    %al,0xe(%edx)
c000565a:	1c 41                	sbb    $0x41,%al
c000565c:	0e                   	push   %cs
c000565d:	20 48 0e             	and    %cl,0xe(%eax)
c0005660:	10 48 0e             	adc    %cl,0xe(%eax)
c0005663:	08 43 c3             	or     %al,-0x3d(%ebx)
c0005666:	0e                   	push   %cs
c0005667:	04 34                	add    $0x34,%al
c0005669:	00 00                	add    %al,(%eax)
c000566b:	00 c4                	add    %al,%ah
c000566d:	12 00                	adc    (%eax),%al
c000566f:	00 f0                	add    %dh,%al
c0005671:	ce                   	into   
c0005672:	ff                   	(bad)  
c0005673:	ff 32                	pushl  (%edx)
c0005675:	00 00                	add    %al,(%eax)
c0005677:	00 00                	add    %al,(%eax)
c0005679:	41                   	inc    %ecx
c000567a:	0e                   	push   %cs
c000567b:	08 83 02 43 0e 1c    	or     %al,0x1c0e4302(%ebx)
c0005681:	46                   	inc    %esi
c0005682:	0e                   	push   %cs
c0005683:	20 48 0e             	and    %cl,0xe(%eax)
c0005686:	10 47 0e             	adc    %al,0xe(%edi)
c0005689:	1c 41                	sbb    $0x41,%al
c000568b:	0e                   	push   %cs
c000568c:	20 48 0e             	and    %cl,0xe(%eax)
c000568f:	10 43 0e             	adc    %al,0xe(%ebx)
c0005692:	18 42 0e             	sbb    %al,0xe(%edx)
c0005695:	1c 41                	sbb    $0x41,%al
c0005697:	0e                   	push   %cs
c0005698:	20 48 0e             	and    %cl,0xe(%eax)
c000569b:	08 41 c3             	or     %al,-0x3d(%ecx)
c000569e:	0e                   	push   %cs
c000569f:	04 94                	add    $0x94,%al
c00056a1:	00 00                	add    %al,(%eax)
c00056a3:	00 fc                	add    %bh,%ah
c00056a5:	12 00                	adc    (%eax),%al
c00056a7:	00 f8                	add    %bh,%al
c00056a9:	ce                   	into   
c00056aa:	ff                   	(bad)  
c00056ab:	ff a8 00 00 00 00    	ljmp   *0x0(%eax)
c00056b1:	41                   	inc    %ecx
c00056b2:	0e                   	push   %cs
c00056b3:	08 85 02 41 0e 0c    	or     %al,0xc0e4102(%ebp)
c00056b9:	87 03                	xchg   %eax,(%ebx)
c00056bb:	41                   	inc    %ecx
c00056bc:	0e                   	push   %cs
c00056bd:	10 86 04 41 0e 14    	adc    %al,0x140e4104(%esi)
c00056c3:	83 05 43 0e 20 69 0e 	addl   $0xe,0x69200e43
c00056ca:	24 45                	and    $0x45,%al
c00056cc:	0e                   	push   %cs
c00056cd:	28 42 0e             	sub    %al,0xe(%edx)
c00056d0:	2c 41                	sub    $0x41,%al
c00056d2:	0e                   	push   %cs
c00056d3:	30 46 0e             	xor    %al,0xe(%esi)
c00056d6:	2c 41                	sub    $0x41,%al
c00056d8:	0e                   	push   %cs
c00056d9:	28 42 0e             	sub    %al,0xe(%edx)
c00056dc:	2c 41                	sub    $0x41,%al
c00056de:	0e                   	push   %cs
c00056df:	30 46 0e             	xor    %al,0xe(%esi)
c00056e2:	2c 41                	sub    $0x41,%al
c00056e4:	0e                   	push   %cs
c00056e5:	28 42 0e             	sub    %al,0xe(%edx)
c00056e8:	2c 41                	sub    $0x41,%al
c00056ea:	0e                   	push   %cs
c00056eb:	30 46 0e             	xor    %al,0xe(%esi)
c00056ee:	2c 41                	sub    $0x41,%al
c00056f0:	0e                   	push   %cs
c00056f1:	28 41 0e             	sub    %al,0xe(%ecx)
c00056f4:	2c 41                	sub    $0x41,%al
c00056f6:	0e                   	push   %cs
c00056f7:	30 4a 0e             	xor    %cl,0xe(%edx)
c00056fa:	20 4b 0e             	and    %cl,0xe(%ebx)
c00056fd:	28 47 0e             	sub    %al,0xe(%edi)
c0005700:	2c 43                	sub    $0x43,%al
c0005702:	0e                   	push   %cs
c0005703:	30 54 0e 14          	xor    %dl,0x14(%esi,%ecx,1)
c0005707:	41                   	inc    %ecx
c0005708:	c3                   	ret    
c0005709:	0e                   	push   %cs
c000570a:	10 41 c6             	adc    %al,-0x3a(%ecx)
c000570d:	0e                   	push   %cs
c000570e:	0c 41                	or     $0x41,%al
c0005710:	c7                   	(bad)  
c0005711:	0e                   	push   %cs
c0005712:	08 41 c5             	or     %al,-0x3b(%ecx)
c0005715:	0e                   	push   %cs
c0005716:	04 54                	add    $0x54,%al
c0005718:	0e                   	push   %cs
c0005719:	20 83 05 85 02 86    	and    %al,-0x79fd7afb(%ebx)
c000571f:	04 87                	add    $0x87,%al
c0005721:	03 43 0e             	add    0xe(%ebx),%eax
c0005724:	14 41                	adc    $0x41,%al
c0005726:	c3                   	ret    
c0005727:	0e                   	push   %cs
c0005728:	10 41 c6             	adc    %al,-0x3a(%ecx)
c000572b:	0e                   	push   %cs
c000572c:	0c 41                	or     $0x41,%al
c000572e:	c7                   	(bad)  
c000572f:	0e                   	push   %cs
c0005730:	08 41 c5             	or     %al,-0x3b(%ecx)
c0005733:	0e                   	push   %cs
c0005734:	04 00                	add    $0x0,%al
c0005736:	00 00                	add    %al,(%eax)
c0005738:	d8 00                	fadds  (%eax)
c000573a:	00 00                	add    %al,(%eax)
c000573c:	94                   	xchg   %eax,%esp
c000573d:	13 00                	adc    (%eax),%eax
c000573f:	00 10                	add    %dl,(%eax)
c0005741:	cf                   	iret   
c0005742:	ff                   	(bad)  
c0005743:	ff 50 01             	call   *0x1(%eax)
c0005746:	00 00                	add    %al,(%eax)
c0005748:	00 41 0e             	add    %al,0xe(%ecx)
c000574b:	08 85 02 41 0e 0c    	or     %al,0xc0e4102(%ebp)
c0005751:	87 03                	xchg   %eax,(%ebx)
c0005753:	41                   	inc    %ecx
c0005754:	0e                   	push   %cs
c0005755:	10 86 04 41 0e 14    	adc    %al,0x140e4104(%esi)
c000575b:	83 05 43 0e 30 61 0e 	addl   $0xe,0x61300e43
c0005762:	34 47                	xor    $0x47,%al
c0005764:	0e                   	push   %cs
c0005765:	38 42 0e             	cmp    %al,0xe(%edx)
c0005768:	3c 41                	cmp    $0x41,%al
c000576a:	0e                   	push   %cs
c000576b:	40                   	inc    %eax
c000576c:	48                   	dec    %eax
c000576d:	0e                   	push   %cs
c000576e:	30 51 0e             	xor    %dl,0xe(%ecx)
c0005771:	38 42 0e             	cmp    %al,0xe(%edx)
c0005774:	3c 41                	cmp    $0x41,%al
c0005776:	0e                   	push   %cs
c0005777:	40                   	inc    %eax
c0005778:	46                   	inc    %esi
c0005779:	0e                   	push   %cs
c000577a:	3c 41                	cmp    $0x41,%al
c000577c:	0e                   	push   %cs
c000577d:	38 41 0e             	cmp    %al,0xe(%ecx)
c0005780:	3c 41                	cmp    $0x41,%al
c0005782:	0e                   	push   %cs
c0005783:	40                   	inc    %eax
c0005784:	57                   	push   %edi
c0005785:	0e                   	push   %cs
c0005786:	30 5d 0e             	xor    %bl,0xe(%ebp)
c0005789:	38 42 0e             	cmp    %al,0xe(%edx)
c000578c:	3c 41                	cmp    $0x41,%al
c000578e:	0e                   	push   %cs
c000578f:	40                   	inc    %eax
c0005790:	46                   	inc    %esi
c0005791:	0e                   	push   %cs
c0005792:	3c 41                	cmp    $0x41,%al
c0005794:	0e                   	push   %cs
c0005795:	38 41 0e             	cmp    %al,0xe(%ecx)
c0005798:	3c 41                	cmp    $0x41,%al
c000579a:	0e                   	push   %cs
c000579b:	40                   	inc    %eax
c000579c:	58                   	pop    %eax
c000579d:	0e                   	push   %cs
c000579e:	30 56 0e             	xor    %dl,0xe(%esi)
c00057a1:	3c 42                	cmp    $0x42,%al
c00057a3:	0e                   	push   %cs
c00057a4:	40                   	inc    %eax
c00057a5:	48                   	dec    %eax
c00057a6:	0e                   	push   %cs
c00057a7:	30 49 0e             	xor    %cl,0xe(%ecx)
c00057aa:	34 4b                	xor    $0x4b,%al
c00057ac:	0e                   	push   %cs
c00057ad:	38 42 0e             	cmp    %al,0xe(%edx)
c00057b0:	3c 41                	cmp    $0x41,%al
c00057b2:	0e                   	push   %cs
c00057b3:	40                   	inc    %eax
c00057b4:	46                   	inc    %esi
c00057b5:	0e                   	push   %cs
c00057b6:	3c 41                	cmp    $0x41,%al
c00057b8:	0e                   	push   %cs
c00057b9:	38 42 0e             	cmp    %al,0xe(%edx)
c00057bc:	3c 41                	cmp    $0x41,%al
c00057be:	0e                   	push   %cs
c00057bf:	40                   	inc    %eax
c00057c0:	46                   	inc    %esi
c00057c1:	0e                   	push   %cs
c00057c2:	3c 41                	cmp    $0x41,%al
c00057c4:	0e                   	push   %cs
c00057c5:	38 42 0e             	cmp    %al,0xe(%edx)
c00057c8:	3c 41                	cmp    $0x41,%al
c00057ca:	0e                   	push   %cs
c00057cb:	40                   	inc    %eax
c00057cc:	46                   	inc    %esi
c00057cd:	0e                   	push   %cs
c00057ce:	3c 41                	cmp    $0x41,%al
c00057d0:	0e                   	push   %cs
c00057d1:	38 41 0e             	cmp    %al,0xe(%ecx)
c00057d4:	3c 41                	cmp    $0x41,%al
c00057d6:	0e                   	push   %cs
c00057d7:	40                   	inc    %eax
c00057d8:	46                   	inc    %esi
c00057d9:	0e                   	push   %cs
c00057da:	3c 41                	cmp    $0x41,%al
c00057dc:	0e                   	push   %cs
c00057dd:	38 42 0e             	cmp    %al,0xe(%edx)
c00057e0:	3c 41                	cmp    $0x41,%al
c00057e2:	0e                   	push   %cs
c00057e3:	40                   	inc    %eax
c00057e4:	46                   	inc    %esi
c00057e5:	0e                   	push   %cs
c00057e6:	3c 41                	cmp    $0x41,%al
c00057e8:	0e                   	push   %cs
c00057e9:	38 42 0e             	cmp    %al,0xe(%edx)
c00057ec:	3c 41                	cmp    $0x41,%al
c00057ee:	0e                   	push   %cs
c00057ef:	40                   	inc    %eax
c00057f0:	46                   	inc    %esi
c00057f1:	0e                   	push   %cs
c00057f2:	3c 41                	cmp    $0x41,%al
c00057f4:	0e                   	push   %cs
c00057f5:	38 41 0e             	cmp    %al,0xe(%ecx)
c00057f8:	3c 41                	cmp    $0x41,%al
c00057fa:	0e                   	push   %cs
c00057fb:	40                   	inc    %eax
c00057fc:	68 0e 30 43 0e       	push   $0xe43300e
c0005801:	14 41                	adc    $0x41,%al
c0005803:	c3                   	ret    
c0005804:	0e                   	push   %cs
c0005805:	10 41 c6             	adc    %al,-0x3a(%ecx)
c0005808:	0e                   	push   %cs
c0005809:	0c 41                	or     $0x41,%al
c000580b:	c7                   	(bad)  
c000580c:	0e                   	push   %cs
c000580d:	08 41 c5             	or     %al,-0x3b(%ecx)
c0005810:	0e                   	push   %cs
c0005811:	04 00                	add    $0x0,%al
c0005813:	00 10                	add    %dl,(%eax)
c0005815:	00 00                	add    %al,(%eax)
c0005817:	00 70 14             	add    %dh,0x14(%eax)
c000581a:	00 00                	add    %al,(%eax)
c000581c:	84 cf                	test   %cl,%bh
c000581e:	ff                   	(bad)  
c000581f:	ff 0b                	decl   (%ebx)
c0005821:	00 00                	add    %al,(%eax)
c0005823:	00 00                	add    %al,(%eax)
c0005825:	00 00                	add    %al,(%eax)
c0005827:	00 10                	add    %dl,(%eax)
c0005829:	00 00                	add    %al,(%eax)
c000582b:	00 84 14 00 00 80 cf 	add    %al,-0x30800000(%esp,%edx,1)
c0005832:	ff                   	(bad)  
c0005833:	ff 0d 00 00 00 00    	decl   0x0
c0005839:	00 00                	add    %al,(%eax)
c000583b:	00 10                	add    %dl,(%eax)
c000583d:	00 00                	add    %al,(%eax)
c000583f:	00 98 14 00 00 7c    	add    %bl,0x7c000014(%eax)
c0005845:	cf                   	iret   
c0005846:	ff                   	(bad)  
c0005847:	ff 12                	call   *(%edx)
c0005849:	00 00                	add    %al,(%eax)
c000584b:	00 00                	add    %al,(%eax)
c000584d:	00 00                	add    %al,(%eax)
c000584f:	00 10                	add    %dl,(%eax)
c0005851:	00 00                	add    %al,(%eax)
c0005853:	00 ac 14 00 00 88 cf 	add    %ch,-0x30780000(%esp,%edx,1)
c000585a:	ff                   	(bad)  
c000585b:	ff 09                	decl   (%ecx)
c000585d:	00 00                	add    %al,(%eax)
c000585f:	00 00                	add    %al,(%eax)
c0005861:	00 00                	add    %al,(%eax)
c0005863:	00 10                	add    %dl,(%eax)
c0005865:	00 00                	add    %al,(%eax)
c0005867:	00 c0                	add    %al,%al
c0005869:	14 00                	adc    $0x0,%al
c000586b:	00 84 cf ff ff 0a 00 	add    %al,0xaffff(%edi,%ecx,8)
c0005872:	00 00                	add    %al,(%eax)
c0005874:	00 00                	add    %al,(%eax)
c0005876:	00 00                	add    %al,(%eax)
c0005878:	10 00                	adc    %al,(%eax)
c000587a:	00 00                	add    %al,(%eax)
c000587c:	d4 14                	aam    $0x14
c000587e:	00 00                	add    %al,(%eax)
c0005880:	80 cf ff             	or     $0xff,%bh
c0005883:	ff 0a                	decl   (%edx)
c0005885:	00 00                	add    %al,(%eax)
c0005887:	00 00                	add    %al,(%eax)
c0005889:	00 00                	add    %al,(%eax)
c000588b:	00 10                	add    %dl,(%eax)
c000588d:	00 00                	add    %al,(%eax)
c000588f:	00 e8                	add    %ch,%al
c0005891:	14 00                	adc    $0x0,%al
c0005893:	00 7c cf ff          	add    %bh,-0x1(%edi,%ecx,8)
c0005897:	ff 0b                	decl   (%ebx)
c0005899:	00 00                	add    %al,(%eax)
c000589b:	00 00                	add    %al,(%eax)
c000589d:	00 00                	add    %al,(%eax)
c000589f:	00 10                	add    %dl,(%eax)
c00058a1:	00 00                	add    %al,(%eax)
c00058a3:	00 fc                	add    %bh,%ah
c00058a5:	14 00                	adc    $0x0,%al
c00058a7:	00 78 cf             	add    %bh,-0x31(%eax)
c00058aa:	ff                   	(bad)  
c00058ab:	ff 0b                	decl   (%ebx)
c00058ad:	00 00                	add    %al,(%eax)
c00058af:	00 00                	add    %al,(%eax)
c00058b1:	00 00                	add    %al,(%eax)
c00058b3:	00 10                	add    %dl,(%eax)
c00058b5:	00 00                	add    %al,(%eax)
c00058b7:	00 10                	add    %dl,(%eax)
c00058b9:	15 00 00 74 cf       	adc    $0xcf740000,%eax
c00058be:	ff                   	(bad)  
c00058bf:	ff 02                	incl   (%edx)
c00058c1:	00 00                	add    %al,(%eax)
c00058c3:	00 00                	add    %al,(%eax)
c00058c5:	00 00                	add    %al,(%eax)
c00058c7:	00 10                	add    %dl,(%eax)
c00058c9:	00 00                	add    %al,(%eax)
c00058cb:	00 24 15 00 00 70 cf 	add    %ah,-0x30900000(,%edx,1)
c00058d2:	ff                   	(bad)  
c00058d3:	ff 0b                	decl   (%ebx)
c00058d5:	00 00                	add    %al,(%eax)
c00058d7:	00 00                	add    %al,(%eax)
c00058d9:	00 00                	add    %al,(%eax)
c00058db:	00 10                	add    %dl,(%eax)
c00058dd:	00 00                	add    %al,(%eax)
c00058df:	00 38                	add    %bh,(%eax)
c00058e1:	15 00 00 6c cf       	adc    $0xcf6c0000,%eax
c00058e6:	ff                   	(bad)  
c00058e7:	ff 0d 00 00 00 00    	decl   0x0
c00058ed:	00 00                	add    %al,(%eax)
c00058ef:	00 10                	add    %dl,(%eax)
c00058f1:	00 00                	add    %al,(%eax)
c00058f3:	00 4c 15 00          	add    %cl,0x0(%ebp,%edx,1)
c00058f7:	00 68 cf             	add    %ch,-0x31(%eax)
c00058fa:	ff                   	(bad)  
c00058fb:	ff 12                	call   *(%edx)
c00058fd:	00 00                	add    %al,(%eax)
c00058ff:	00 00                	add    %al,(%eax)
c0005901:	00 00                	add    %al,(%eax)
c0005903:	00 10                	add    %dl,(%eax)
c0005905:	00 00                	add    %al,(%eax)
c0005907:	00 60 15             	add    %ah,0x15(%eax)
c000590a:	00 00                	add    %al,(%eax)
c000590c:	74 cf                	je     c00058dd <FLOPPY_IRQ+0x1539>
c000590e:	ff                   	(bad)  
c000590f:	ff 09                	decl   (%ecx)
c0005911:	00 00                	add    %al,(%eax)
c0005913:	00 00                	add    %al,(%eax)
c0005915:	00 00                	add    %al,(%eax)
c0005917:	00 10                	add    %dl,(%eax)
c0005919:	00 00                	add    %al,(%eax)
c000591b:	00 74 15 00          	add    %dh,0x0(%ebp,%edx,1)
c000591f:	00 70 cf             	add    %dh,-0x31(%eax)
c0005922:	ff                   	(bad)  
c0005923:	ff 0a                	decl   (%edx)
c0005925:	00 00                	add    %al,(%eax)
c0005927:	00 00                	add    %al,(%eax)
c0005929:	00 00                	add    %al,(%eax)
c000592b:	00 10                	add    %dl,(%eax)
c000592d:	00 00                	add    %al,(%eax)
c000592f:	00 88 15 00 00 6c    	add    %cl,0x6c000015(%eax)
c0005935:	cf                   	iret   
c0005936:	ff                   	(bad)  
c0005937:	ff 0a                	decl   (%edx)
c0005939:	00 00                	add    %al,(%eax)
c000593b:	00 00                	add    %al,(%eax)
c000593d:	00 00                	add    %al,(%eax)
c000593f:	00 18                	add    %bl,(%eax)
c0005941:	00 00                	add    %al,(%eax)
c0005943:	00 9c 15 00 00 68 cf 	add    %bl,-0x30980000(%ebp,%edx,1)
c000594a:	ff                   	(bad)  
c000594b:	ff 0e                	decl   (%esi)
c000594d:	00 00                	add    %al,(%eax)
c000594f:	00 00                	add    %al,(%eax)
c0005951:	43                   	inc    %ebx
c0005952:	0e                   	push   %cs
c0005953:	1c 42                	sbb    $0x42,%al
c0005955:	0e                   	push   %cs
c0005956:	20 48 0e             	and    %cl,0xe(%eax)
c0005959:	04 00                	add    $0x0,%al
c000595b:	00 30                	add    %dh,(%eax)
c000595d:	00 00                	add    %al,(%eax)
c000595f:	00 b8 15 00 00 5c    	add    %bh,0x5c000015(%eax)
c0005965:	cf                   	iret   
c0005966:	ff                   	(bad)  
c0005967:	ff 34 00             	pushl  (%eax,%eax,1)
c000596a:	00 00                	add    %al,(%eax)
c000596c:	00 41 0e             	add    %al,0xe(%ecx)
c000596f:	08 83 02 43 0e 10    	or     %al,0x100e4302(%ebx)
c0005975:	4f                   	dec    %edi
c0005976:	0e                   	push   %cs
c0005977:	1c 42                	sbb    $0x42,%al
c0005979:	0e                   	push   %cs
c000597a:	20 48 0e             	and    %cl,0xe(%eax)
c000597d:	10 47 0e             	adc    %al,0xe(%edi)
c0005980:	18 44 0e 1c          	sbb    %al,0x1c(%esi,%ecx,1)
c0005984:	42                   	inc    %edx
c0005985:	0e                   	push   %cs
c0005986:	20 48 0e             	and    %cl,0xe(%eax)
c0005989:	08 41 c3             	or     %al,-0x3d(%ecx)
c000598c:	0e                   	push   %cs
c000598d:	04 00                	add    $0x0,%al
c000598f:	00 18                	add    %bl,(%eax)
c0005991:	00 00                	add    %al,(%eax)
c0005993:	00 ec                	add    %ch,%ah
c0005995:	15 00 00 68 cf       	adc    $0xcf680000,%eax
c000599a:	ff                   	(bad)  
c000599b:	ff 0e                	decl   (%esi)
c000599d:	00 00                	add    %al,(%eax)
c000599f:	00 00                	add    %al,(%eax)
c00059a1:	43                   	inc    %ebx
c00059a2:	0e                   	push   %cs
c00059a3:	1c 42                	sbb    $0x42,%al
c00059a5:	0e                   	push   %cs
c00059a6:	20 48 0e             	and    %cl,0xe(%eax)
c00059a9:	04 00                	add    $0x0,%al
c00059ab:	00 30                	add    %dh,(%eax)
c00059ad:	00 00                	add    %al,(%eax)
c00059af:	00 08                	add    %cl,(%eax)
c00059b1:	16                   	push   %ss
c00059b2:	00 00                	add    %al,(%eax)
c00059b4:	5c                   	pop    %esp
c00059b5:	cf                   	iret   
c00059b6:	ff                   	(bad)  
c00059b7:	ff 34 00             	pushl  (%eax,%eax,1)
c00059ba:	00 00                	add    %al,(%eax)
c00059bc:	00 41 0e             	add    %al,0xe(%ecx)
c00059bf:	08 83 02 43 0e 10    	or     %al,0x100e4302(%ebx)
c00059c5:	4f                   	dec    %edi
c00059c6:	0e                   	push   %cs
c00059c7:	1c 42                	sbb    $0x42,%al
c00059c9:	0e                   	push   %cs
c00059ca:	20 48 0e             	and    %cl,0xe(%eax)
c00059cd:	10 47 0e             	adc    %al,0xe(%edi)
c00059d0:	18 44 0e 1c          	sbb    %al,0x1c(%esi,%ecx,1)
c00059d4:	42                   	inc    %edx
c00059d5:	0e                   	push   %cs
c00059d6:	20 48 0e             	and    %cl,0xe(%eax)
c00059d9:	08 41 c3             	or     %al,-0x3d(%ecx)
c00059dc:	0e                   	push   %cs
c00059dd:	04 00                	add    $0x0,%al
c00059df:	00 4c 00 00          	add    %cl,0x0(%eax,%eax,1)
c00059e3:	00 3c 16             	add    %bh,(%esi,%edx,1)
c00059e6:	00 00                	add    %al,(%eax)
c00059e8:	68 cf ff ff 28       	push   $0x28ffffcf
c00059ed:	02 00                	add    (%eax),%al
c00059ef:	00 00                	add    %al,(%eax)
c00059f1:	41                   	inc    %ecx
c00059f2:	0e                   	push   %cs
c00059f3:	08 86 02 41 0e 0c    	or     %al,0xc0e4102(%esi)
c00059f9:	83 03 43             	addl   $0x43,(%ebx)
c00059fc:	0e                   	push   %cs
c00059fd:	1c 42                	sbb    $0x42,%al
c00059ff:	0e                   	push   %cs
c0005a00:	20 48 0e             	and    %cl,0xe(%eax)
c0005a03:	10 47 0e             	adc    %al,0xe(%edi)
c0005a06:	1c 42                	sbb    $0x42,%al
c0005a08:	0e                   	push   %cs
c0005a09:	20 48 0e             	and    %cl,0xe(%eax)
c0005a0c:	0c 41                	or     $0x41,%al
c0005a0e:	c3                   	ret    
c0005a0f:	0e                   	push   %cs
c0005a10:	08 41 c6             	or     %al,-0x3a(%ecx)
c0005a13:	0e                   	push   %cs
c0005a14:	04 4e                	add    $0x4e,%al
c0005a16:	0e                   	push   %cs
c0005a17:	10 83 03 86 02 43    	adc    %al,0x43028603(%ebx)
c0005a1d:	0e                   	push   %cs
c0005a1e:	1c 42                	sbb    $0x42,%al
c0005a20:	0e                   	push   %cs
c0005a21:	20 4b 0e             	and    %cl,0xe(%ebx)
c0005a24:	10 02                	adc    %al,(%edx)
c0005a26:	a6                   	cmpsb  %es:(%edi),%ds:(%esi)
c0005a27:	0e                   	push   %cs
c0005a28:	1c 45                	sbb    $0x45,%al
c0005a2a:	0e                   	push   %cs
c0005a2b:	20 55 0e             	and    %dl,0xe(%ebp)
c0005a2e:	10 00                	adc    %al,(%eax)
c0005a30:	10 00                	adc    %al,(%eax)
c0005a32:	00 00                	add    %al,(%eax)
c0005a34:	8c 16                	mov    %ss,(%esi)
c0005a36:	00 00                	add    %al,(%eax)
c0005a38:	48                   	dec    %eax
c0005a39:	d1 ff                	sar    %edi
c0005a3b:	ff 08                	decl   (%eax)
c0005a3d:	00 00                	add    %al,(%eax)
c0005a3f:	00 00                	add    %al,(%eax)
c0005a41:	00 00                	add    %al,(%eax)
c0005a43:	00 10                	add    %dl,(%eax)
c0005a45:	00 00                	add    %al,(%eax)
c0005a47:	00 a0 16 00 00 44    	add    %ah,0x44000016(%eax)
c0005a4d:	d1 ff                	sar    %edi
c0005a4f:	ff 08                	decl   (%eax)
c0005a51:	00 00                	add    %al,(%eax)
c0005a53:	00 00                	add    %al,(%eax)
c0005a55:	00 00                	add    %al,(%eax)
c0005a57:	00 10                	add    %dl,(%eax)
c0005a59:	00 00                	add    %al,(%eax)
c0005a5b:	00 b4 16 00 00 40 d1 	add    %dh,-0x2ec00000(%esi,%edx,1)
c0005a62:	ff                   	(bad)  
c0005a63:	ff 08                	decl   (%eax)
c0005a65:	00 00                	add    %al,(%eax)
c0005a67:	00 00                	add    %al,(%eax)
c0005a69:	00 00                	add    %al,(%eax)
c0005a6b:	00 10                	add    %dl,(%eax)
c0005a6d:	00 00                	add    %al,(%eax)
c0005a6f:	00 c8                	add    %cl,%al
c0005a71:	16                   	push   %ss
c0005a72:	00 00                	add    %al,(%eax)
c0005a74:	3c d1                	cmp    $0xd1,%al
c0005a76:	ff                   	(bad)  
c0005a77:	ff 08                	decl   (%eax)
c0005a79:	00 00                	add    %al,(%eax)
c0005a7b:	00 00                	add    %al,(%eax)
c0005a7d:	00 00                	add    %al,(%eax)
c0005a7f:	00 10                	add    %dl,(%eax)
c0005a81:	00 00                	add    %al,(%eax)
c0005a83:	00 dc                	add    %bl,%ah
c0005a85:	16                   	push   %ss
c0005a86:	00 00                	add    %al,(%eax)
c0005a88:	38 d1                	cmp    %dl,%cl
c0005a8a:	ff                   	(bad)  
c0005a8b:	ff 08                	decl   (%eax)
c0005a8d:	00 00                	add    %al,(%eax)
c0005a8f:	00 00                	add    %al,(%eax)
c0005a91:	00 00                	add    %al,(%eax)
c0005a93:	00 10                	add    %dl,(%eax)
c0005a95:	00 00                	add    %al,(%eax)
c0005a97:	00 f0                	add    %dh,%al
c0005a99:	16                   	push   %ss
c0005a9a:	00 00                	add    %al,(%eax)
c0005a9c:	34 d1                	xor    $0xd1,%al
c0005a9e:	ff                   	(bad)  
c0005a9f:	ff 08                	decl   (%eax)
c0005aa1:	00 00                	add    %al,(%eax)
c0005aa3:	00 00                	add    %al,(%eax)
c0005aa5:	00 00                	add    %al,(%eax)
c0005aa7:	00 10                	add    %dl,(%eax)
c0005aa9:	00 00                	add    %al,(%eax)
c0005aab:	00 04 17             	add    %al,(%edi,%edx,1)
c0005aae:	00 00                	add    %al,(%eax)
c0005ab0:	30 d1                	xor    %dl,%cl
c0005ab2:	ff                   	(bad)  
c0005ab3:	ff 08                	decl   (%eax)
c0005ab5:	00 00                	add    %al,(%eax)
c0005ab7:	00 00                	add    %al,(%eax)
c0005ab9:	00 00                	add    %al,(%eax)
c0005abb:	00 10                	add    %dl,(%eax)
c0005abd:	00 00                	add    %al,(%eax)
c0005abf:	00 18                	add    %bl,(%eax)
c0005ac1:	17                   	pop    %ss
c0005ac2:	00 00                	add    %al,(%eax)
c0005ac4:	2c d1                	sub    $0xd1,%al
c0005ac6:	ff                   	(bad)  
c0005ac7:	ff 08                	decl   (%eax)
c0005ac9:	00 00                	add    %al,(%eax)
c0005acb:	00 00                	add    %al,(%eax)
c0005acd:	00 00                	add    %al,(%eax)
c0005acf:	00 10                	add    %dl,(%eax)
c0005ad1:	00 00                	add    %al,(%eax)
c0005ad3:	00 2c 17             	add    %ch,(%edi,%edx,1)
c0005ad6:	00 00                	add    %al,(%eax)
c0005ad8:	28 d1                	sub    %dl,%cl
c0005ada:	ff                   	(bad)  
c0005adb:	ff 08                	decl   (%eax)
c0005add:	00 00                	add    %al,(%eax)
c0005adf:	00 00                	add    %al,(%eax)
c0005ae1:	00 00                	add    %al,(%eax)
c0005ae3:	00 10                	add    %dl,(%eax)
c0005ae5:	00 00                	add    %al,(%eax)
c0005ae7:	00 40 17             	add    %al,0x17(%eax)
c0005aea:	00 00                	add    %al,(%eax)
c0005aec:	24 d1                	and    $0xd1,%al
c0005aee:	ff                   	(bad)  
c0005aef:	ff 08                	decl   (%eax)
c0005af1:	00 00                	add    %al,(%eax)
c0005af3:	00 00                	add    %al,(%eax)
c0005af5:	00 00                	add    %al,(%eax)
c0005af7:	00 10                	add    %dl,(%eax)
c0005af9:	00 00                	add    %al,(%eax)
c0005afb:	00 54 17 00          	add    %dl,0x0(%edi,%edx,1)
c0005aff:	00 20                	add    %ah,(%eax)
c0005b01:	d1 ff                	sar    %edi
c0005b03:	ff 08                	decl   (%eax)
c0005b05:	00 00                	add    %al,(%eax)
c0005b07:	00 00                	add    %al,(%eax)
c0005b09:	00 00                	add    %al,(%eax)
c0005b0b:	00 20                	add    %ah,(%eax)
c0005b0d:	00 00                	add    %al,(%eax)
c0005b0f:	00 68 17             	add    %ch,0x17(%eax)
c0005b12:	00 00                	add    %al,(%eax)
c0005b14:	1c d1                	sbb    $0xd1,%al
c0005b16:	ff                   	(bad)  
c0005b17:	ff 33                	pushl  (%ebx)
c0005b19:	00 00                	add    %al,(%eax)
c0005b1b:	00 00                	add    %al,(%eax)
c0005b1d:	41                   	inc    %ecx
c0005b1e:	0e                   	push   %cs
c0005b1f:	08 83 02 48 0e 1c    	or     %al,0x1c0e4802(%ebx)
c0005b25:	52                   	push   %edx
c0005b26:	0e                   	push   %cs
c0005b27:	20 52 0e             	and    %dl,0xe(%edx)
c0005b2a:	08 41 c3             	or     %al,-0x3d(%ecx)
c0005b2d:	0e                   	push   %cs
c0005b2e:	04 00                	add    $0x0,%al
c0005b30:	10 00                	adc    %al,(%eax)
c0005b32:	00 00                	add    %al,(%eax)
c0005b34:	8c 17                	mov    %ss,(%edi)
c0005b36:	00 00                	add    %al,(%eax)
c0005b38:	38 d1                	cmp    %dl,%cl
c0005b3a:	ff                   	(bad)  
c0005b3b:	ff 28                	ljmp   *(%eax)
c0005b3d:	00 00                	add    %al,(%eax)
c0005b3f:	00 00                	add    %al,(%eax)
c0005b41:	00 00                	add    %al,(%eax)
c0005b43:	00 10                	add    %dl,(%eax)
c0005b45:	00 00                	add    %al,(%eax)
c0005b47:	00 a0 17 00 00 54    	add    %ah,0x54000017(%eax)
c0005b4d:	d1 ff                	sar    %edi
c0005b4f:	ff 08                	decl   (%eax)
c0005b51:	00 00                	add    %al,(%eax)
c0005b53:	00 00                	add    %al,(%eax)
c0005b55:	00 00                	add    %al,(%eax)
c0005b57:	00 b8 00 00 00 b4    	add    %bh,-0x4c000000(%eax)
c0005b5d:	17                   	pop    %ss
c0005b5e:	00 00                	add    %al,(%eax)
c0005b60:	50                   	push   %eax
c0005b61:	d1 ff                	sar    %edi
c0005b63:	ff 83 01 00 00 00    	incl   0x1(%ebx)
c0005b69:	41                   	inc    %ecx
c0005b6a:	0e                   	push   %cs
c0005b6b:	08 83 02 02 65 0a    	or     %al,0xa650202(%ebx)
c0005b71:	c3                   	ret    
c0005b72:	0e                   	push   %cs
c0005b73:	04 4a                	add    $0x4a,%al
c0005b75:	0b 43 0a             	or     0xa(%ebx),%eax
c0005b78:	c3                   	ret    
c0005b79:	0e                   	push   %cs
c0005b7a:	04 4d                	add    $0x4d,%al
c0005b7c:	0b 63 0a             	or     0xa(%ebx),%esp
c0005b7f:	c3                   	ret    
c0005b80:	0e                   	push   %cs
c0005b81:	04 4d                	add    $0x4d,%al
c0005b83:	0b 46 0a             	or     0xa(%esi),%eax
c0005b86:	c3                   	ret    
c0005b87:	0e                   	push   %cs
c0005b88:	04 4a                	add    $0x4a,%al
c0005b8a:	0b 46 0a             	or     0xa(%esi),%eax
c0005b8d:	c3                   	ret    
c0005b8e:	0e                   	push   %cs
c0005b8f:	04 4a                	add    $0x4a,%al
c0005b91:	0b 46 0a             	or     0xa(%esi),%eax
c0005b94:	c3                   	ret    
c0005b95:	0e                   	push   %cs
c0005b96:	04 4a                	add    $0x4a,%al
c0005b98:	0b 46 0a             	or     0xa(%esi),%eax
c0005b9b:	c3                   	ret    
c0005b9c:	0e                   	push   %cs
c0005b9d:	04 4a                	add    $0x4a,%al
c0005b9f:	0b 46 0a             	or     0xa(%esi),%eax
c0005ba2:	c3                   	ret    
c0005ba3:	0e                   	push   %cs
c0005ba4:	04 4a                	add    $0x4a,%al
c0005ba6:	0b 46 0a             	or     0xa(%esi),%eax
c0005ba9:	c3                   	ret    
c0005baa:	0e                   	push   %cs
c0005bab:	04 4a                	add    $0x4a,%al
c0005bad:	0b 46 0a             	or     0xa(%esi),%eax
c0005bb0:	c3                   	ret    
c0005bb1:	0e                   	push   %cs
c0005bb2:	04 41                	add    $0x41,%al
c0005bb4:	0b 46 0a             	or     0xa(%esi),%eax
c0005bb7:	c3                   	ret    
c0005bb8:	0e                   	push   %cs
c0005bb9:	04 41                	add    $0x41,%al
c0005bbb:	0b 46 0a             	or     0xa(%esi),%eax
c0005bbe:	c3                   	ret    
c0005bbf:	0e                   	push   %cs
c0005bc0:	04 41                	add    $0x41,%al
c0005bc2:	0b 46 0a             	or     0xa(%esi),%eax
c0005bc5:	c3                   	ret    
c0005bc6:	0e                   	push   %cs
c0005bc7:	04 41                	add    $0x41,%al
c0005bc9:	0b 46 0a             	or     0xa(%esi),%eax
c0005bcc:	c3                   	ret    
c0005bcd:	0e                   	push   %cs
c0005bce:	04 41                	add    $0x41,%al
c0005bd0:	0b 46 0a             	or     0xa(%esi),%eax
c0005bd3:	c3                   	ret    
c0005bd4:	0e                   	push   %cs
c0005bd5:	04 41                	add    $0x41,%al
c0005bd7:	0b 46 0a             	or     0xa(%esi),%eax
c0005bda:	c3                   	ret    
c0005bdb:	0e                   	push   %cs
c0005bdc:	04 41                	add    $0x41,%al
c0005bde:	0b 46 0a             	or     0xa(%esi),%eax
c0005be1:	c3                   	ret    
c0005be2:	0e                   	push   %cs
c0005be3:	04 41                	add    $0x41,%al
c0005be5:	0b 46 0a             	or     0xa(%esi),%eax
c0005be8:	c3                   	ret    
c0005be9:	0e                   	push   %cs
c0005bea:	04 41                	add    $0x41,%al
c0005bec:	0b 46 0a             	or     0xa(%esi),%eax
c0005bef:	c3                   	ret    
c0005bf0:	0e                   	push   %cs
c0005bf1:	04 41                	add    $0x41,%al
c0005bf3:	0b 46 0a             	or     0xa(%esi),%eax
c0005bf6:	c3                   	ret    
c0005bf7:	0e                   	push   %cs
c0005bf8:	04 41                	add    $0x41,%al
c0005bfa:	0b 46 0a             	or     0xa(%esi),%eax
c0005bfd:	c3                   	ret    
c0005bfe:	0e                   	push   %cs
c0005bff:	04 4d                	add    $0x4d,%al
c0005c01:	0b 46 0a             	or     0xa(%esi),%eax
c0005c04:	c3                   	ret    
c0005c05:	0e                   	push   %cs
c0005c06:	04 41                	add    $0x41,%al
c0005c08:	0b 46 0a             	or     0xa(%esi),%eax
c0005c0b:	c3                   	ret    
c0005c0c:	0e                   	push   %cs
c0005c0d:	04 41                	add    $0x41,%al
c0005c0f:	0b 44 c3 0e          	or     0xe(%ebx,%eax,8),%eax
c0005c13:	04 18                	add    $0x18,%al
c0005c15:	00 00                	add    %al,(%eax)
c0005c17:	00 70 18             	add    %dh,0x18(%eax)
c0005c1a:	00 00                	add    %al,(%eax)
c0005c1c:	24 d2                	and    $0xd2,%al
c0005c1e:	ff                   	(bad)  
c0005c1f:	ff 18                	lcall  *(%eax)
c0005c21:	00 00                	add    %al,(%eax)
c0005c23:	00 00                	add    %al,(%eax)
c0005c25:	43                   	inc    %ebx
c0005c26:	0e                   	push   %cs
c0005c27:	1c 45                	sbb    $0x45,%al
c0005c29:	0e                   	push   %cs
c0005c2a:	20 4f 0e             	and    %cl,0xe(%edi)
c0005c2d:	04 00                	add    $0x0,%al
c0005c2f:	00 18                	add    %bl,(%eax)
c0005c31:	00 00                	add    %al,(%eax)
c0005c33:	00 8c 18 00 00 28 d2 	add    %cl,-0x2dd80000(%eax,%ebx,1)
c0005c3a:	ff                   	(bad)  
c0005c3b:	ff 18                	lcall  *(%eax)
c0005c3d:	00 00                	add    %al,(%eax)
c0005c3f:	00 00                	add    %al,(%eax)
c0005c41:	43                   	inc    %ebx
c0005c42:	0e                   	push   %cs
c0005c43:	1c 45                	sbb    $0x45,%al
c0005c45:	0e                   	push   %cs
c0005c46:	20 4f 0e             	and    %cl,0xe(%edi)
c0005c49:	04 00                	add    $0x0,%al
c0005c4b:	00 10                	add    %dl,(%eax)
c0005c4d:	00 00                	add    %al,(%eax)
c0005c4f:	00 a8 18 00 00 2c    	add    %ch,0x2c000018(%eax)
c0005c55:	d2 ff                	sar    %cl,%bh
c0005c57:	ff 08                	decl   (%eax)
c0005c59:	00 00                	add    %al,(%eax)
c0005c5b:	00 00                	add    %al,(%eax)
c0005c5d:	00 00                	add    %al,(%eax)
c0005c5f:	00 18                	add    %bl,(%eax)
c0005c61:	00 00                	add    %al,(%eax)
c0005c63:	00 bc 18 00 00 28 d2 	add    %bh,-0x2dd80000(%eax,%ebx,1)
c0005c6a:	ff                   	(bad)  
c0005c6b:	ff 1d 00 00 00 00    	lcall  *0x0
c0005c71:	43                   	inc    %ebx
c0005c72:	0e                   	push   %cs
c0005c73:	1c 45                	sbb    $0x45,%al
c0005c75:	0e                   	push   %cs
c0005c76:	20 54 0e 04          	and    %dl,0x4(%esi,%ecx,1)
c0005c7a:	00 00                	add    %al,(%eax)
c0005c7c:	28 00                	sub    %al,(%eax)
c0005c7e:	00 00                	add    %al,(%eax)
c0005c80:	d8 18                	fcomps (%eax)
c0005c82:	00 00                	add    %al,(%eax)
c0005c84:	2c d2                	sub    $0xd2,%al
c0005c86:	ff                   	(bad)  
c0005c87:	ff 34 00             	pushl  (%eax,%eax,1)
c0005c8a:	00 00                	add    %al,(%eax)
c0005c8c:	00 43 0e             	add    %al,0xe(%ebx)
c0005c8f:	1c 45                	sbb    $0x45,%al
c0005c91:	0e                   	push   %cs
c0005c92:	20 48 0e             	and    %cl,0xe(%eax)
c0005c95:	10 43 0e             	adc    %al,0xe(%ebx)
c0005c98:	1c 42                	sbb    $0x42,%al
c0005c9a:	0e                   	push   %cs
c0005c9b:	20 48 0e             	and    %cl,0xe(%eax)
c0005c9e:	10 47 0e             	adc    %al,0xe(%edi)
c0005ca1:	1c 42                	sbb    $0x42,%al
c0005ca3:	0e                   	push   %cs
c0005ca4:	20 4d 0e             	and    %cl,0xe(%ebp)
c0005ca7:	04 1c                	add    $0x1c,%al
c0005ca9:	00 00                	add    %al,(%eax)
c0005cab:	00 04 19             	add    %al,(%ecx,%ebx,1)
c0005cae:	00 00                	add    %al,(%eax)
c0005cb0:	40                   	inc    %eax
c0005cb1:	d2 ff                	sar    %cl,%bh
c0005cb3:	ff 65 00             	jmp    *0x0(%ebp)
c0005cb6:	00 00                	add    %al,(%eax)
c0005cb8:	00 43 0e             	add    %al,0xe(%ebx)
c0005cbb:	18 45 0e             	sbb    %al,0xe(%ebp)
c0005cbe:	1c 44                	sbb    $0x44,%al
c0005cc0:	0e                   	push   %cs
c0005cc1:	20 02                	and    %al,(%edx)
c0005cc3:	58                   	pop    %eax
c0005cc4:	0e                   	push   %cs
c0005cc5:	04 00                	add    $0x0,%al
c0005cc7:	00 7c 00 00          	add    %bh,0x0(%eax,%eax,1)
c0005ccb:	00 24 19             	add    %ah,(%ecx,%ebx,1)
c0005cce:	00 00                	add    %al,(%eax)
c0005cd0:	90                   	nop
c0005cd1:	d2 ff                	sar    %cl,%bh
c0005cd3:	ff                   	(bad)  
c0005cd4:	7a 00                	jp     c0005cd6 <FLOPPY_IRQ+0x1932>
c0005cd6:	00 00                	add    %al,(%eax)
c0005cd8:	00 43 0e             	add    %al,0xe(%ebx)
c0005cdb:	18 42 0e             	sbb    %al,0xe(%edx)
c0005cde:	1c 42                	sbb    $0x42,%al
c0005ce0:	0e                   	push   %cs
c0005ce1:	20 46 0e             	and    %al,0xe(%esi)
c0005ce4:	1c 41                	sbb    $0x41,%al
c0005ce6:	0e                   	push   %cs
c0005ce7:	18 45 0e             	sbb    %al,0xe(%ebp)
c0005cea:	1c 45                	sbb    $0x45,%al
c0005cec:	0e                   	push   %cs
c0005ced:	20 46 0e             	and    %al,0xe(%esi)
c0005cf0:	1c 41                	sbb    $0x41,%al
c0005cf2:	0e                   	push   %cs
c0005cf3:	18 42 0e             	sbb    %al,0xe(%edx)
c0005cf6:	1c 42                	sbb    $0x42,%al
c0005cf8:	0e                   	push   %cs
c0005cf9:	20 46 0e             	and    %al,0xe(%esi)
c0005cfc:	1c 41                	sbb    $0x41,%al
c0005cfe:	0e                   	push   %cs
c0005cff:	18 42 0e             	sbb    %al,0xe(%edx)
c0005d02:	1c 42                	sbb    $0x42,%al
c0005d04:	0e                   	push   %cs
c0005d05:	20 46 0e             	and    %al,0xe(%esi)
c0005d08:	1c 41                	sbb    $0x41,%al
c0005d0a:	0e                   	push   %cs
c0005d0b:	18 45 0e             	sbb    %al,0xe(%ebp)
c0005d0e:	1c 45                	sbb    $0x45,%al
c0005d10:	0e                   	push   %cs
c0005d11:	20 46 0e             	and    %al,0xe(%esi)
c0005d14:	1c 41                	sbb    $0x41,%al
c0005d16:	0e                   	push   %cs
c0005d17:	18 45 0e             	sbb    %al,0xe(%ebp)
c0005d1a:	1c 42                	sbb    $0x42,%al
c0005d1c:	0e                   	push   %cs
c0005d1d:	20 46 0e             	and    %al,0xe(%esi)
c0005d20:	1c 41                	sbb    $0x41,%al
c0005d22:	0e                   	push   %cs
c0005d23:	18 42 0e             	sbb    %al,0xe(%edx)
c0005d26:	1c 42                	sbb    $0x42,%al
c0005d28:	0e                   	push   %cs
c0005d29:	20 46 0e             	and    %al,0xe(%esi)
c0005d2c:	1c 41                	sbb    $0x41,%al
c0005d2e:	0e                   	push   %cs
c0005d2f:	18 42 0e             	sbb    %al,0xe(%edx)
c0005d32:	1c 45                	sbb    $0x45,%al
c0005d34:	0e                   	push   %cs
c0005d35:	20 46 0e             	and    %al,0xe(%esi)
c0005d38:	1c 41                	sbb    $0x41,%al
c0005d3a:	0e                   	push   %cs
c0005d3b:	18 42 0e             	sbb    %al,0xe(%edx)
c0005d3e:	1c 42                	sbb    $0x42,%al
c0005d40:	0e                   	push   %cs
c0005d41:	20 48 0e             	and    %cl,0xe(%eax)
c0005d44:	04 00                	add    $0x0,%al
c0005d46:	00 00                	add    %al,(%eax)
c0005d48:	34 00                	xor    $0x0,%al
c0005d4a:	00 00                	add    %al,(%eax)
c0005d4c:	a4                   	movsb  %ds:(%esi),%es:(%edi)
c0005d4d:	19 00                	sbb    %eax,(%eax)
c0005d4f:	00 90 d2 ff ff 26    	add    %dl,0x26ffffd2(%eax)
c0005d55:	00 00                	add    %al,(%eax)
c0005d57:	00 00                	add    %al,(%eax)
c0005d59:	43                   	inc    %ebx
c0005d5a:	0e                   	push   %cs
c0005d5b:	18 42 0e             	sbb    %al,0xe(%edx)
c0005d5e:	1c 42                	sbb    $0x42,%al
c0005d60:	0e                   	push   %cs
c0005d61:	20 46 0e             	and    %al,0xe(%esi)
c0005d64:	1c 41                	sbb    $0x41,%al
c0005d66:	0e                   	push   %cs
c0005d67:	18 42 0e             	sbb    %al,0xe(%edx)
c0005d6a:	1c 42                	sbb    $0x42,%al
c0005d6c:	0e                   	push   %cs
c0005d6d:	20 46 0e             	and    %al,0xe(%esi)
c0005d70:	1c 41                	sbb    $0x41,%al
c0005d72:	0e                   	push   %cs
c0005d73:	18 42 0e             	sbb    %al,0xe(%edx)
c0005d76:	1c 42                	sbb    $0x42,%al
c0005d78:	0e                   	push   %cs
c0005d79:	20 48 0e             	and    %cl,0xe(%eax)
c0005d7c:	04 00                	add    $0x0,%al
c0005d7e:	00 00                	add    %al,(%eax)
c0005d80:	34 00                	xor    $0x0,%al
c0005d82:	00 00                	add    %al,(%eax)
c0005d84:	dc 19                	fcompl (%ecx)
c0005d86:	00 00                	add    %al,(%eax)
c0005d88:	88 d2                	mov    %dl,%dl
c0005d8a:	ff                   	(bad)  
c0005d8b:	ff 26                	jmp    *(%esi)
c0005d8d:	00 00                	add    %al,(%eax)
c0005d8f:	00 00                	add    %al,(%eax)
c0005d91:	43                   	inc    %ebx
c0005d92:	0e                   	push   %cs
c0005d93:	18 42 0e             	sbb    %al,0xe(%edx)
c0005d96:	1c 42                	sbb    $0x42,%al
c0005d98:	0e                   	push   %cs
c0005d99:	20 46 0e             	and    %al,0xe(%esi)
c0005d9c:	1c 41                	sbb    $0x41,%al
c0005d9e:	0e                   	push   %cs
c0005d9f:	18 42 0e             	sbb    %al,0xe(%edx)
c0005da2:	1c 42                	sbb    $0x42,%al
c0005da4:	0e                   	push   %cs
c0005da5:	20 46 0e             	and    %al,0xe(%esi)
c0005da8:	1c 41                	sbb    $0x41,%al
c0005daa:	0e                   	push   %cs
c0005dab:	18 42 0e             	sbb    %al,0xe(%edx)
c0005dae:	1c 42                	sbb    $0x42,%al
c0005db0:	0e                   	push   %cs
c0005db1:	20 48 0e             	and    %cl,0xe(%eax)
c0005db4:	04 00                	add    $0x0,%al
c0005db6:	00 00                	add    %al,(%eax)
c0005db8:	18 00                	sbb    %al,(%eax)
c0005dba:	00 00                	add    %al,(%eax)
c0005dbc:	14 1a                	adc    $0x1a,%al
c0005dbe:	00 00                	add    %al,(%eax)
c0005dc0:	80 d2 ff             	adc    $0xff,%dl
c0005dc3:	ff 11                	call   *(%ecx)
c0005dc5:	00 00                	add    %al,(%eax)
c0005dc7:	00 00                	add    %al,(%eax)
c0005dc9:	43                   	inc    %ebx
c0005dca:	0e                   	push   %cs
c0005dcb:	1c 45                	sbb    $0x45,%al
c0005dcd:	0e                   	push   %cs
c0005dce:	20 48 0e             	and    %cl,0xe(%eax)
c0005dd1:	04 00                	add    $0x0,%al
c0005dd3:	00 1c 00             	add    %bl,(%eax,%eax,1)
c0005dd6:	00 00                	add    %al,(%eax)
c0005dd8:	30 1a                	xor    %bl,(%edx)
c0005dda:	00 00                	add    %al,(%eax)
c0005ddc:	84 d2                	test   %dl,%dl
c0005dde:	ff                   	(bad)  
c0005ddf:	ff 17                	call   *(%edi)
c0005de1:	00 00                	add    %al,(%eax)
c0005de3:	00 00                	add    %al,(%eax)
c0005de5:	43                   	inc    %ebx
c0005de6:	0e                   	push   %cs
c0005de7:	18 46 0e             	sbb    %al,0xe(%esi)
c0005dea:	1c 45                	sbb    $0x45,%al
c0005dec:	0e                   	push   %cs
c0005ded:	20 48 0e             	and    %cl,0xe(%eax)
c0005df0:	04 00                	add    $0x0,%al
c0005df2:	00 00                	add    %al,(%eax)
c0005df4:	3c 00                	cmp    $0x0,%al
c0005df6:	00 00                	add    %al,(%eax)
c0005df8:	50                   	push   %eax
c0005df9:	1a 00                	sbb    (%eax),%al
c0005dfb:	00 84 d2 ff ff 45 00 	add    %al,0x45ffff(%edx,%edx,8)
c0005e02:	00 00                	add    %al,(%eax)
c0005e04:	00 41 0e             	add    %al,0xe(%ecx)
c0005e07:	08 86 02 41 0e 0c    	or     %al,0xc0e4102(%esi)
c0005e0d:	83 03 48             	addl   $0x48,(%ebx)
c0005e10:	0e                   	push   %cs
c0005e11:	10 4e 0e             	adc    %cl,0xe(%esi)
c0005e14:	1c 45                	sbb    $0x45,%al
c0005e16:	0e                   	push   %cs
c0005e17:	20 48 0e             	and    %cl,0xe(%eax)
c0005e1a:	10 49 0e             	adc    %cl,0xe(%ecx)
c0005e1d:	18 44 0e 1c          	sbb    %al,0x1c(%esi,%ecx,1)
c0005e21:	45                   	inc    %ebp
c0005e22:	0e                   	push   %cs
c0005e23:	20 48 0e             	and    %cl,0xe(%eax)
c0005e26:	10 43 0e             	adc    %al,0xe(%ebx)
c0005e29:	0c 41                	or     $0x41,%al
c0005e2b:	c3                   	ret    
c0005e2c:	0e                   	push   %cs
c0005e2d:	08 41 c6             	or     %al,-0x3a(%ecx)
c0005e30:	0e                   	push   %cs
c0005e31:	04 00                	add    $0x0,%al
c0005e33:	00 38                	add    %bh,(%eax)
c0005e35:	00 00                	add    %al,(%eax)
c0005e37:	00 90 1a 00 00 94    	add    %dl,-0x6bffffe6(%eax)
c0005e3d:	d2 ff                	sar    %cl,%bh
c0005e3f:	ff 47 00             	incl   0x0(%edi)
c0005e42:	00 00                	add    %al,(%eax)
c0005e44:	00 41 0e             	add    %al,0xe(%ecx)
c0005e47:	08 83 02 48 0e 10    	or     %al,0x100e4802(%ebx)
c0005e4d:	4f                   	dec    %edi
c0005e4e:	0e                   	push   %cs
c0005e4f:	1c 45                	sbb    $0x45,%al
c0005e51:	0e                   	push   %cs
c0005e52:	20 48 0e             	and    %cl,0xe(%eax)
c0005e55:	10 47 0e             	adc    %al,0xe(%edi)
c0005e58:	1c 45                	sbb    $0x45,%al
c0005e5a:	0e                   	push   %cs
c0005e5b:	20 48 0e             	and    %cl,0xe(%eax)
c0005e5e:	10 43 0a             	adc    %al,0xa(%ebx)
c0005e61:	0e                   	push   %cs
c0005e62:	08 41 c3             	or     %al,-0x3d(%ecx)
c0005e65:	0e                   	push   %cs
c0005e66:	04 43                	add    $0x43,%al
c0005e68:	0b 43 0e             	or     0xe(%ebx),%eax
c0005e6b:	08 43 c3             	or     %al,-0x3d(%ebx)
c0005e6e:	0e                   	push   %cs
c0005e6f:	04 1c                	add    $0x1c,%al
c0005e71:	00 00                	add    %al,(%eax)
c0005e73:	00 cc                	add    %cl,%ah
c0005e75:	1a 00                	sbb    (%eax),%al
c0005e77:	00 a8 d2 ff ff 17    	add    %ch,0x17ffffd2(%eax)
c0005e7d:	00 00                	add    %al,(%eax)
c0005e7f:	00 00                	add    %al,(%eax)
c0005e81:	43                   	inc    %ebx
c0005e82:	0e                   	push   %cs
c0005e83:	18 46 0e             	sbb    %al,0xe(%esi)
c0005e86:	1c 45                	sbb    $0x45,%al
c0005e88:	0e                   	push   %cs
c0005e89:	20 48 0e             	and    %cl,0xe(%eax)
c0005e8c:	04 00                	add    $0x0,%al
c0005e8e:	00 00                	add    %al,(%eax)
c0005e90:	18 00                	sbb    %al,(%eax)
c0005e92:	00 00                	add    %al,(%eax)
c0005e94:	ec                   	in     (%dx),%al
c0005e95:	1a 00                	sbb    (%eax),%al
c0005e97:	00 a8 d2 ff ff 15    	add    %ch,0x15ffffd2(%eax)
c0005e9d:	00 00                	add    %al,(%eax)
c0005e9f:	00 00                	add    %al,(%eax)
c0005ea1:	43                   	inc    %ebx
c0005ea2:	0e                   	push   %cs
c0005ea3:	1c 49                	sbb    $0x49,%al
c0005ea5:	0e                   	push   %cs
c0005ea6:	20 48 0e             	and    %cl,0xe(%eax)
c0005ea9:	04 00                	add    $0x0,%al
c0005eab:	00 18                	add    %bl,(%eax)
c0005ead:	00 00                	add    %al,(%eax)
c0005eaf:	00 08                	add    %cl,(%eax)
c0005eb1:	1b 00                	sbb    (%eax),%eax
c0005eb3:	00 ac d2 ff ff 2a 00 	add    %ch,0x2affff(%edx,%edx,8)
c0005eba:	00 00                	add    %al,(%eax)
c0005ebc:	00 43 0e             	add    %al,0xe(%ebx)
c0005ebf:	1c 42                	sbb    $0x42,%al
c0005ec1:	0e                   	push   %cs
c0005ec2:	20 64 0e 04          	and    %ah,0x4(%esi,%ecx,1)
c0005ec6:	00 00                	add    %al,(%eax)
c0005ec8:	38 00                	cmp    %al,(%eax)
c0005eca:	00 00                	add    %al,(%eax)
c0005ecc:	24 1b                	and    $0x1b,%al
c0005ece:	00 00                	add    %al,(%eax)
c0005ed0:	c0 d2 ff             	rcl    $0xff,%dl
c0005ed3:	ff 74 00 00          	pushl  0x0(%eax,%eax,1)
c0005ed7:	00 00                	add    %al,(%eax)
c0005ed9:	43                   	inc    %ebx
c0005eda:	0e                   	push   %cs
c0005edb:	10 56 0e             	adc    %dl,0xe(%esi)
c0005ede:	18 42 0e             	sbb    %al,0xe(%edx)
c0005ee1:	1c 45                	sbb    $0x45,%al
c0005ee3:	0e                   	push   %cs
c0005ee4:	20 48 0e             	and    %cl,0xe(%eax)
c0005ee7:	10 4b 0a             	adc    %cl,0xa(%ebx)
c0005eea:	0e                   	push   %cs
c0005eeb:	04 4d                	add    $0x4d,%al
c0005eed:	0b 45 0e             	or     0xe(%ebp),%eax
c0005ef0:	18 4e 0e             	sbb    %cl,0xe(%esi)
c0005ef3:	1c 45                	sbb    $0x45,%al
c0005ef5:	0e                   	push   %cs
c0005ef6:	20 48 0e             	and    %cl,0xe(%eax)
c0005ef9:	10 4b 0a             	adc    %cl,0xa(%ebx)
c0005efc:	0e                   	push   %cs
c0005efd:	04 45                	add    $0x45,%al
c0005eff:	0b 43 0e             	or     0xe(%ebx),%eax
c0005f02:	04 00                	add    $0x0,%al
c0005f04:	3c 00                	cmp    $0x0,%al
c0005f06:	00 00                	add    %al,(%eax)
c0005f08:	60                   	pusha  
c0005f09:	1b 00                	sbb    (%eax),%eax
c0005f0b:	00 04 d3             	add    %al,(%ebx,%edx,8)
c0005f0e:	ff                   	(bad)  
c0005f0f:	ff 53 00             	call   *0x0(%ebx)
c0005f12:	00 00                	add    %al,(%eax)
c0005f14:	00 41 0e             	add    %al,0xe(%ecx)
c0005f17:	08 85 02 41 0e 0c    	or     %al,0xc0e4102(%ebp)
c0005f1d:	87 03                	xchg   %eax,(%ebx)
c0005f1f:	41                   	inc    %ecx
c0005f20:	0e                   	push   %cs
c0005f21:	10 86 04 41 0e 14    	adc    %al,0x140e4104(%esi)
c0005f27:	83 05 43 0e 2c 52 0e 	addl   $0xe,0x522c0e43
c0005f2e:	30 71 0e             	xor    %dh,0xe(%ecx)
c0005f31:	14 41                	adc    $0x41,%al
c0005f33:	c3                   	ret    
c0005f34:	0e                   	push   %cs
c0005f35:	10 41 c6             	adc    %al,-0x3a(%ecx)
c0005f38:	0e                   	push   %cs
c0005f39:	0c 41                	or     $0x41,%al
c0005f3b:	c7                   	(bad)  
c0005f3c:	0e                   	push   %cs
c0005f3d:	08 41 c5             	or     %al,-0x3b(%ecx)
c0005f40:	0e                   	push   %cs
c0005f41:	04 00                	add    $0x0,%al
c0005f43:	00 80 00 00 00 a0    	add    %al,-0x60000000(%eax)
c0005f49:	1b 00                	sbb    (%eax),%eax
c0005f4b:	00 24 d3             	add    %ah,(%ebx,%edx,8)
c0005f4e:	ff                   	(bad)  
c0005f4f:	ff b4 00 00 00 00 41 	pushl  0x41000000(%eax,%eax,1)
c0005f56:	0e                   	push   %cs
c0005f57:	08 85 02 41 0e 0c    	or     %al,0xc0e4102(%ebp)
c0005f5d:	87 03                	xchg   %eax,(%ebx)
c0005f5f:	41                   	inc    %ecx
c0005f60:	0e                   	push   %cs
c0005f61:	10 86 04 41 0e 14    	adc    %al,0x140e4104(%esi)
c0005f67:	83 05 43 0e 30 50 0e 	addl   $0xe,0x50300e43
c0005f6e:	3c 47                	cmp    $0x47,%al
c0005f70:	0e                   	push   %cs
c0005f71:	40                   	inc    %eax
c0005f72:	48                   	dec    %eax
c0005f73:	0e                   	push   %cs
c0005f74:	30 4d 0e             	xor    %cl,0xe(%ebp)
c0005f77:	3c 42                	cmp    $0x42,%al
c0005f79:	0e                   	push   %cs
c0005f7a:	40                   	inc    %eax
c0005f7b:	50                   	push   %eax
c0005f7c:	0e                   	push   %cs
c0005f7d:	30 59 0e             	xor    %bl,0xe(%ecx)
c0005f80:	38 48 0e             	cmp    %cl,0xe(%eax)
c0005f83:	3c 41                	cmp    $0x41,%al
c0005f85:	0e                   	push   %cs
c0005f86:	40                   	inc    %eax
c0005f87:	48                   	dec    %eax
c0005f88:	0e                   	push   %cs
c0005f89:	30 50 0e             	xor    %dl,0xe(%eax)
c0005f8c:	3c 42                	cmp    $0x42,%al
c0005f8e:	0e                   	push   %cs
c0005f8f:	40                   	inc    %eax
c0005f90:	48                   	dec    %eax
c0005f91:	0e                   	push   %cs
c0005f92:	30 48 0a             	xor    %cl,0xa(%eax)
c0005f95:	0e                   	push   %cs
c0005f96:	14 41                	adc    $0x41,%al
c0005f98:	c3                   	ret    
c0005f99:	0e                   	push   %cs
c0005f9a:	10 41 c6             	adc    %al,-0x3a(%ecx)
c0005f9d:	0e                   	push   %cs
c0005f9e:	0c 41                	or     $0x41,%al
c0005fa0:	c7                   	(bad)  
c0005fa1:	0e                   	push   %cs
c0005fa2:	08 41 c5             	or     %al,-0x3b(%ecx)
c0005fa5:	0e                   	push   %cs
c0005fa6:	04 41                	add    $0x41,%al
c0005fa8:	0b 43 0e             	or     0xe(%ebx),%eax
c0005fab:	3c 42                	cmp    $0x42,%al
c0005fad:	0e                   	push   %cs
c0005fae:	40                   	inc    %eax
c0005faf:	48                   	dec    %eax
c0005fb0:	0e                   	push   %cs
c0005fb1:	30 45 0a             	xor    %al,0xa(%ebp)
c0005fb4:	0e                   	push   %cs
c0005fb5:	14 41                	adc    $0x41,%al
c0005fb7:	c3                   	ret    
c0005fb8:	0e                   	push   %cs
c0005fb9:	10 41 c6             	adc    %al,-0x3a(%ecx)
c0005fbc:	0e                   	push   %cs
c0005fbd:	0c 41                	or     $0x41,%al
c0005fbf:	c7                   	(bad)  
c0005fc0:	0e                   	push   %cs
c0005fc1:	08 41 c5             	or     %al,-0x3b(%ecx)
c0005fc4:	0e                   	push   %cs
c0005fc5:	04 41                	add    $0x41,%al
c0005fc7:	0b 1c 00             	or     (%eax,%eax,1),%ebx
c0005fca:	00 00                	add    %al,(%eax)
c0005fcc:	24 1c                	and    $0x1c,%al
c0005fce:	00 00                	add    %al,(%eax)
c0005fd0:	60                   	pusha  
c0005fd1:	d3 ff                	sar    %cl,%edi
c0005fd3:	ff 13                	call   *(%ebx)
c0005fd5:	00 00                	add    %al,(%eax)
c0005fd7:	00 00                	add    %al,(%eax)
c0005fd9:	43                   	inc    %ebx
c0005fda:	0e                   	push   %cs
c0005fdb:	18 42 0e             	sbb    %al,0xe(%edx)
c0005fde:	1c 45                	sbb    $0x45,%al
c0005fe0:	0e                   	push   %cs
c0005fe1:	20 48 0e             	and    %cl,0xe(%eax)
c0005fe4:	04 00                	add    $0x0,%al
c0005fe6:	00 00                	add    %al,(%eax)
c0005fe8:	1c 00                	sbb    $0x0,%al
c0005fea:	00 00                	add    %al,(%eax)
c0005fec:	44                   	inc    %esp
c0005fed:	1c 00                	sbb    $0x0,%al
c0005fef:	00 60 d3             	add    %ah,-0x2d(%eax)
c0005ff2:	ff                   	(bad)  
c0005ff3:	ff 13                	call   *(%ebx)
c0005ff5:	00 00                	add    %al,(%eax)
c0005ff7:	00 00                	add    %al,(%eax)
c0005ff9:	43                   	inc    %ebx
c0005ffa:	0e                   	push   %cs
c0005ffb:	18 42 0e             	sbb    %al,0xe(%edx)
c0005ffe:	1c 45                	sbb    $0x45,%al
c0006000:	0e                   	push   %cs
c0006001:	20 48 0e             	and    %cl,0xe(%eax)
c0006004:	04 00                	add    $0x0,%al
c0006006:	00 00                	add    %al,(%eax)
c0006008:	58                   	pop    %eax
c0006009:	00 00                	add    %al,(%eax)
c000600b:	00 64 1c 00          	add    %ah,0x0(%esp,%ebx,1)
c000600f:	00 60 d3             	add    %ah,-0x2d(%eax)
c0006012:	ff                   	(bad)  
c0006013:	ff aa 00 00 00 00    	ljmp   *0x0(%edx)
c0006019:	41                   	inc    %ecx
c000601a:	0e                   	push   %cs
c000601b:	08 87 02 41 0e 0c    	or     %al,0xc0e4102(%edi)
c0006021:	86 03                	xchg   %al,(%ebx)
c0006023:	41                   	inc    %ecx
c0006024:	0e                   	push   %cs
c0006025:	10 83 04 43 0e 28    	adc    %al,0x280e4304(%ebx)
c000602b:	42                   	inc    %edx
c000602c:	0e                   	push   %cs
c000602d:	2c 45                	sub    $0x45,%al
c000602f:	0e                   	push   %cs
c0006030:	30 46 0e             	xor    %al,0xe(%esi)
c0006033:	2c 41                	sub    $0x41,%al
c0006035:	0e                   	push   %cs
c0006036:	28 42 0e             	sub    %al,0xe(%edx)
c0006039:	2c 45                	sub    $0x45,%al
c000603b:	0e                   	push   %cs
c000603c:	30 48 0e             	xor    %cl,0xe(%eax)
c000603f:	20 6f 0e             	and    %ch,0xe(%edi)
c0006042:	28 41 0e             	sub    %al,0xe(%ecx)
c0006045:	2c 41                	sub    $0x41,%al
c0006047:	0e                   	push   %cs
c0006048:	30 48 0e             	xor    %cl,0xe(%eax)
c000604b:	20 48 0e             	and    %cl,0xe(%eax)
c000604e:	28 42 0e             	sub    %al,0xe(%edx)
c0006051:	2c 45                	sub    $0x45,%al
c0006053:	0e                   	push   %cs
c0006054:	30 7b 0e             	xor    %bh,0xe(%ebx)
c0006057:	10 41 c3             	adc    %al,-0x3d(%ecx)
c000605a:	0e                   	push   %cs
c000605b:	0c 41                	or     $0x41,%al
c000605d:	c6                   	(bad)  
c000605e:	0e                   	push   %cs
c000605f:	08 41 c7             	or     %al,-0x39(%ecx)
c0006062:	0e                   	push   %cs
c0006063:	04 44                	add    $0x44,%al
c0006065:	00 00                	add    %al,(%eax)
c0006067:	00 c0                	add    %al,%al
c0006069:	1c 00                	sbb    $0x0,%al
c000606b:	00 b4 d3 ff ff f3 00 	add    %dh,0xf3ffff(%ebx,%edx,8)
c0006072:	00 00                	add    %al,(%eax)
c0006074:	00 41 0e             	add    %al,0xe(%ecx)
c0006077:	08 87 02 41 0e 0c    	or     %al,0xc0e4102(%edi)
c000607d:	86 03                	xchg   %al,(%ebx)
c000607f:	41                   	inc    %ecx
c0006080:	0e                   	push   %cs
c0006081:	10 83 04 43 0e 20    	adc    %al,0x200e4304(%ebx)
c0006087:	54                   	push   %esp
c0006088:	0e                   	push   %cs
c0006089:	2c 45                	sub    $0x45,%al
c000608b:	0e                   	push   %cs
c000608c:	30 02                	xor    %al,(%edx)
c000608e:	82                   	(bad)  
c000608f:	0e                   	push   %cs
c0006090:	20 7c 0e 28          	and    %bh,0x28(%esi,%ecx,1)
c0006094:	45                   	inc    %ebp
c0006095:	0e                   	push   %cs
c0006096:	2c 45                	sub    $0x45,%al
c0006098:	0e                   	push   %cs
c0006099:	30 48 0e             	xor    %cl,0xe(%eax)
c000609c:	10 41 c3             	adc    %al,-0x3d(%ecx)
c000609f:	0e                   	push   %cs
c00060a0:	0c 41                	or     $0x41,%al
c00060a2:	c6                   	(bad)  
c00060a3:	0e                   	push   %cs
c00060a4:	08 41 c7             	or     %al,-0x39(%ecx)
c00060a7:	0e                   	push   %cs
c00060a8:	04 00                	add    $0x0,%al
c00060aa:	00 00                	add    %al,(%eax)
c00060ac:	64 00 00             	add    %al,%fs:(%eax)
c00060af:	00 08                	add    %cl,(%eax)
c00060b1:	1d 00 00 6c d4       	sbb    $0xd46c0000,%eax
c00060b6:	ff                   	(bad)  
c00060b7:	ff                   	(bad)  
c00060b8:	bb 00 00 00 00       	mov    $0x0,%ebx
c00060bd:	4e                   	dec    %esi
c00060be:	0e                   	push   %cs
c00060bf:	08 85 02 41 0e 0c    	or     %al,0xc0e4102(%ebp)
c00060c5:	87 03                	xchg   %eax,(%ebx)
c00060c7:	41                   	inc    %ecx
c00060c8:	0e                   	push   %cs
c00060c9:	10 86 04 41 0e 14    	adc    %al,0x140e4104(%esi)
c00060cf:	83 05 48 0e 40 6a 0e 	addl   $0xe,0x6a400e48
c00060d6:	4c                   	dec    %esp
c00060d7:	42                   	inc    %edx
c00060d8:	0e                   	push   %cs
c00060d9:	50                   	push   %eax
c00060da:	66 0e                	pushw  %cs
c00060dc:	40                   	inc    %eax
c00060dd:	53                   	push   %ebx
c00060de:	0e                   	push   %cs
c00060df:	48                   	dec    %eax
c00060e0:	48                   	dec    %eax
c00060e1:	0e                   	push   %cs
c00060e2:	4c                   	dec    %esp
c00060e3:	41                   	inc    %ecx
c00060e4:	0e                   	push   %cs
c00060e5:	50                   	push   %eax
c00060e6:	48                   	dec    %eax
c00060e7:	0e                   	push   %cs
c00060e8:	40                   	inc    %eax
c00060e9:	52                   	push   %edx
c00060ea:	0a 0e                	or     (%esi),%cl
c00060ec:	14 46                	adc    $0x46,%al
c00060ee:	c3                   	ret    
c00060ef:	0e                   	push   %cs
c00060f0:	10 41 c6             	adc    %al,-0x3a(%ecx)
c00060f3:	0e                   	push   %cs
c00060f4:	0c 41                	or     $0x41,%al
c00060f6:	c7                   	(bad)  
c00060f7:	0e                   	push   %cs
c00060f8:	08 41 c5             	or     %al,-0x3b(%ecx)
c00060fb:	0e                   	push   %cs
c00060fc:	04 41                	add    $0x41,%al
c00060fe:	0b 43 0e             	or     0xe(%ebx),%eax
c0006101:	14 43                	adc    $0x43,%al
c0006103:	c3                   	ret    
c0006104:	0e                   	push   %cs
c0006105:	10 41 c6             	adc    %al,-0x3a(%ecx)
c0006108:	0e                   	push   %cs
c0006109:	0c 41                	or     $0x41,%al
c000610b:	c7                   	(bad)  
c000610c:	0e                   	push   %cs
c000610d:	08 41 c5             	or     %al,-0x3b(%ecx)
c0006110:	0e                   	push   %cs
c0006111:	04 00                	add    $0x0,%al
c0006113:	00 34 00             	add    %dh,(%eax,%eax,1)
c0006116:	00 00                	add    %al,(%eax)
c0006118:	70 1d                	jo     c0006137 <FLOPPY_IRQ+0x1d93>
c000611a:	00 00                	add    %al,(%eax)
c000611c:	c4                   	(bad)  
c000611d:	d4 ff                	aam    $0xff
c000611f:	ff 63 00             	jmp    *0x0(%ebx)
c0006122:	00 00                	add    %al,(%eax)
c0006124:	00 46 0e             	add    %al,0xe(%esi)
c0006127:	08 85 02 41 0e 0c    	or     %al,0xc0e4102(%ebp)
c000612d:	87 03                	xchg   %eax,(%ebx)
c000612f:	43                   	inc    %ebx
c0006130:	0e                   	push   %cs
c0006131:	10 86 04 41 0e 14    	adc    %al,0x140e4104(%esi)
c0006137:	83 05 02 54 c3 0e 10 	addl   $0x10,0xec35402
c000613e:	41                   	inc    %ecx
c000613f:	c6                   	(bad)  
c0006140:	0e                   	push   %cs
c0006141:	0c 41                	or     $0x41,%al
c0006143:	c7                   	(bad)  
c0006144:	0e                   	push   %cs
c0006145:	08 41 c5             	or     %al,-0x3b(%ecx)
c0006148:	0e                   	push   %cs
c0006149:	04 00                	add    $0x0,%al
c000614b:	00 1c 00             	add    %bl,(%eax,%eax,1)
c000614e:	00 00                	add    %al,(%eax)
c0006150:	a8 1d                	test   $0x1d,%al
c0006152:	00 00                	add    %al,(%eax)
c0006154:	fc                   	cld    
c0006155:	d4 ff                	aam    $0xff
c0006157:	ff 43 00             	incl   0x0(%ebx)
c000615a:	00 00                	add    %al,(%eax)
c000615c:	00 43 0e             	add    %al,0xe(%ebx)
c000615f:	18 45 0e             	sbb    %al,0xe(%ebp)
c0006162:	1c 44                	sbb    $0x44,%al
c0006164:	0e                   	push   %cs
c0006165:	20 72 0e             	and    %dh,0xe(%edx)
c0006168:	04 00                	add    $0x0,%al
c000616a:	00 00                	add    %al,(%eax)
c000616c:	10 00                	adc    %al,(%eax)
c000616e:	00 00                	add    %al,(%eax)
c0006170:	c8 1d 00 00          	enter  $0x1d,$0x0
c0006174:	2c d5                	sub    $0xd5,%al
c0006176:	ff                   	(bad)  
c0006177:	ff 0f                	decl   (%edi)
c0006179:	00 00                	add    %al,(%eax)
c000617b:	00 00                	add    %al,(%eax)
c000617d:	00 00                	add    %al,(%eax)
c000617f:	00 10                	add    %dl,(%eax)
c0006181:	00 00                	add    %al,(%eax)
c0006183:	00 dc                	add    %bl,%ah
c0006185:	1d 00 00 28 d5       	sbb    $0xd5280000,%eax
c000618a:	ff                   	(bad)  
c000618b:	ff 08                	decl   (%eax)
c000618d:	00 00                	add    %al,(%eax)
c000618f:	00 00                	add    %al,(%eax)
c0006191:	00 00                	add    %al,(%eax)
c0006193:	00 70 00             	add    %dh,0x0(%eax)
c0006196:	00 00                	add    %al,(%eax)
c0006198:	f0 1d 00 00 24 d5    	lock sbb $0xd5240000,%eax
c000619e:	ff                   	(bad)  
c000619f:	ff c3                	inc    %ebx
c00061a1:	00 00                	add    %al,(%eax)
c00061a3:	00 00                	add    %al,(%eax)
c00061a5:	4e                   	dec    %esi
c00061a6:	0e                   	push   %cs
c00061a7:	08 85 02 41 0e 0c    	or     %al,0xc0e4102(%ebp)
c00061ad:	87 03                	xchg   %eax,(%ebx)
c00061af:	46                   	inc    %esi
c00061b0:	0e                   	push   %cs
c00061b1:	10 86 04 41 0e 14    	adc    %al,0x140e4104(%esi)
c00061b7:	83 05 45 0e 2c 75 0e 	addl   $0xe,0x752c0e45
c00061be:	30 54 0e 2c          	xor    %dl,0x2c(%esi,%ecx,1)
c00061c2:	41                   	inc    %ecx
c00061c3:	0e                   	push   %cs
c00061c4:	28 41 0e             	sub    %al,0xe(%ecx)
c00061c7:	2c 41                	sub    $0x41,%al
c00061c9:	0e                   	push   %cs
c00061ca:	30 48 0e             	xor    %cl,0xe(%eax)
c00061cd:	20 49 0e             	and    %cl,0xe(%ecx)
c00061d0:	24 47                	and    $0x47,%al
c00061d2:	0e                   	push   %cs
c00061d3:	28 46 0e             	sub    %al,0xe(%esi)
c00061d6:	2c 41                	sub    $0x41,%al
c00061d8:	0e                   	push   %cs
c00061d9:	30 54 0e 20          	xor    %dl,0x20(%esi,%ecx,1)
c00061dd:	48                   	dec    %eax
c00061de:	0a 0e                	or     (%esi),%cl
c00061e0:	14 41                	adc    $0x41,%al
c00061e2:	c3                   	ret    
c00061e3:	0e                   	push   %cs
c00061e4:	10 41 c6             	adc    %al,-0x3a(%ecx)
c00061e7:	0e                   	push   %cs
c00061e8:	0c 41                	or     $0x41,%al
c00061ea:	c7                   	(bad)  
c00061eb:	0e                   	push   %cs
c00061ec:	08 41 c5             	or     %al,-0x3b(%ecx)
c00061ef:	0e                   	push   %cs
c00061f0:	04 4a                	add    $0x4a,%al
c00061f2:	0b 43 0e             	or     0xe(%ebx),%eax
c00061f5:	14 43                	adc    $0x43,%al
c00061f7:	c3                   	ret    
c00061f8:	0e                   	push   %cs
c00061f9:	10 41 c6             	adc    %al,-0x3a(%ecx)
c00061fc:	0e                   	push   %cs
c00061fd:	0c 41                	or     $0x41,%al
c00061ff:	c7                   	(bad)  
c0006200:	0e                   	push   %cs
c0006201:	08 41 c5             	or     %al,-0x3b(%ecx)
c0006204:	0e                   	push   %cs
c0006205:	04 00                	add    $0x0,%al
	...

Disassembly of section .rodata.str1.4:

c0006208 <.rodata.str1.4>:
c0006208:	20 20                	and    %ah,(%eax)
c000620a:	20 20                	and    %ah,(%eax)
c000620c:	20 20                	and    %ah,(%eax)
c000620e:	20 20                	and    %ah,(%eax)
c0006210:	20 20                	and    %ah,(%eax)
c0006212:	20 20                	and    %ah,(%eax)
c0006214:	20 20                	and    %ah,(%eax)
c0006216:	20 20                	and    %ah,(%eax)
c0006218:	20 20                	and    %ah,(%eax)
c000621a:	20 20                	and    %ah,(%eax)
c000621c:	7e 5b                	jle    c0006279 <FLOPPY_IRQ+0x1ed5>
c000621e:	20 50 68             	and    %dl,0x68(%eax)
c0006221:	79 73                	jns    c0006296 <FLOPPY_IRQ+0x1ef2>
c0006223:	69 63 61 6c 20 4d 65 	imul   $0x654d206c,0x61(%ebx),%esp
c000622a:	6d                   	insl   (%dx),%es:(%edi)
c000622b:	6f                   	outsl  %ds:(%esi),(%dx)
c000622c:	72 79                	jb     c00062a7 <FLOPPY_IRQ+0x1f03>
c000622e:	20 4d 61             	and    %cl,0x61(%ebp)
c0006231:	6e                   	outsb  %ds:(%esi),(%dx)
c0006232:	61                   	popa   
c0006233:	67                   	addr16
c0006234:	65                   	gs
c0006235:	72 20                	jb     c0006257 <FLOPPY_IRQ+0x1eb3>
c0006237:	44                   	inc    %esp
c0006238:	65                   	gs
c0006239:	6d                   	insl   (%dx),%es:(%edi)
c000623a:	6f                   	outsl  %ds:(%esi),(%dx)
c000623b:	20 5d 7e             	and    %bl,0x7e(%ebp)
c000623e:	20 20                	and    %ah,(%eax)
c0006240:	20 20                	and    %ah,(%eax)
c0006242:	20 20                	and    %ah,(%eax)
c0006244:	20 20                	and    %ah,(%eax)
c0006246:	20 20                	and    %ah,(%eax)
c0006248:	20 20                	and    %ah,(%eax)
c000624a:	20 20                	and    %ah,(%eax)
c000624c:	20 20                	and    %ah,(%eax)
c000624e:	20 20                	and    %ah,(%eax)
c0006250:	20 20                	and    %ah,(%eax)
c0006252:	20 20                	and    %ah,(%eax)
c0006254:	20 20                	and    %ah,(%eax)
c0006256:	20 20                	and    %ah,(%eax)
c0006258:	00 00                	add    %al,(%eax)
c000625a:	00 00                	add    %al,(%eax)
c000625c:	20 20                	and    %ah,(%eax)
c000625e:	20 20                	and    %ah,(%eax)
c0006260:	20 20                	and    %ah,(%eax)
c0006262:	20 20                	and    %ah,(%eax)
c0006264:	20 20                	and    %ah,(%eax)
c0006266:	20 20                	and    %ah,(%eax)
c0006268:	20 20                	and    %ah,(%eax)
c000626a:	20 20                	and    %ah,(%eax)
c000626c:	20 20                	and    %ah,(%eax)
c000626e:	20 20                	and    %ah,(%eax)
c0006270:	20 20                	and    %ah,(%eax)
c0006272:	20 20                	and    %ah,(%eax)
c0006274:	20 20                	and    %ah,(%eax)
c0006276:	20 20                	and    %ah,(%eax)
c0006278:	20 20                	and    %ah,(%eax)
c000627a:	20 20                	and    %ah,(%eax)
c000627c:	20 20                	and    %ah,(%eax)
c000627e:	20 20                	and    %ah,(%eax)
c0006280:	20 20                	and    %ah,(%eax)
c0006282:	20 20                	and    %ah,(%eax)
c0006284:	20 20                	and    %ah,(%eax)
c0006286:	20 20                	and    %ah,(%eax)
c0006288:	20 20                	and    %ah,(%eax)
c000628a:	20 20                	and    %ah,(%eax)
c000628c:	20 20                	and    %ah,(%eax)
c000628e:	20 20                	and    %ah,(%eax)
c0006290:	20 20                	and    %ah,(%eax)
c0006292:	20 20                	and    %ah,(%eax)
c0006294:	20 20                	and    %ah,(%eax)
c0006296:	20 20                	and    %ah,(%eax)
c0006298:	20 20                	and    %ah,(%eax)
c000629a:	20 20                	and    %ah,(%eax)
c000629c:	20 20                	and    %ah,(%eax)
c000629e:	20 20                	and    %ah,(%eax)
c00062a0:	20 20                	and    %ah,(%eax)
c00062a2:	20 20                	and    %ah,(%eax)
c00062a4:	20 20                	and    %ah,(%eax)
c00062a6:	20 20                	and    %ah,(%eax)
c00062a8:	20 20                	and    %ah,(%eax)
c00062aa:	20 20                	and    %ah,(%eax)
c00062ac:	00 00                	add    %al,(%eax)
c00062ae:	00 00                	add    %al,(%eax)
c00062b0:	0a 0d 50 6c 65 61    	or     0x61656c50,%cl
c00062b6:	73 65                	jae    c000631d <FLOPPY_IRQ+0x1f79>
c00062b8:	20 74 79 70          	and    %dh,0x70(%ecx,%edi,2)
c00062bc:	65 20 69 6e          	and    %ch,%gs:0x6e(%ecx)
c00062c0:	20 74 68 65          	and    %dh,0x65(%eax,%ebp,2)
c00062c4:	20 73 65             	and    %dh,0x65(%ebx)
c00062c7:	63 74 6f 72          	arpl   %si,0x72(%edi,%ebp,2)
c00062cb:	20 6e 75             	and    %ch,0x75(%esi)
c00062ce:	6d                   	insl   (%dx),%es:(%edi)
c00062cf:	62 65 72             	bound  %esp,0x72(%ebp)
c00062d2:	20 5b 30             	and    %bl,0x30(%ebx)
c00062d5:	20 69 73             	and    %ch,0x73(%ecx)
c00062d8:	20 64 65 66          	and    %ah,0x66(%ebp,%eiz,2)
c00062dc:	61                   	popa   
c00062dd:	75 6c                	jne    c000634b <FLOPPY_IRQ+0x1fa7>
c00062df:	74 5d                	je     c000633e <FLOPPY_IRQ+0x1f9a>
c00062e1:	20 3e                	and    %bh,(%esi)
c00062e3:	00 0a                	add    %cl,(%edx)
c00062e5:	0d 2a 2a 2a 20       	or     $0x202a2a2a,%eax
c00062ea:	45                   	inc    %ebp
c00062eb:	72 72                	jb     c000635f <FLOPPY_IRQ+0x1fbb>
c00062ed:	6f                   	outsl  %ds:(%esi),(%dx)
c00062ee:	72 20                	jb     c0006310 <FLOPPY_IRQ+0x1f6c>
c00062f0:	72 65                	jb     c0006357 <FLOPPY_IRQ+0x1fb3>
c00062f2:	61                   	popa   
c00062f3:	64 69 6e 67 20 73 65 	imul   $0x63657320,%fs:0x67(%esi),%ebp
c00062fa:	63 
c00062fb:	74 6f                	je     c000636c <FLOPPY_IRQ+0x1fc8>
c00062fd:	72 20                	jb     c000631f <FLOPPY_IRQ+0x1f7b>
c00062ff:	66                   	data16
c0006300:	72 6f                	jb     c0006371 <FLOPPY_IRQ+0x1fcd>
c0006302:	6d                   	insl   (%dx),%es:(%edi)
c0006303:	20 64 69 73          	and    %ah,0x73(%ecx,%ebp,2)
c0006307:	6b 00 00             	imul   $0x0,(%eax),%eax
c000630a:	00 00                	add    %al,(%eax)
c000630c:	0a 4f 53             	or     0x53(%edi),%cl
c000630f:	20 44 65 76          	and    %al,0x76(%ebp,%eiz,2)
c0006313:	65                   	gs
c0006314:	6c                   	insb   (%dx),%es:(%edi)
c0006315:	6f                   	outsl  %ds:(%esi),(%dx)
c0006316:	70 6d                	jo     c0006385 <FLOPPY_IRQ+0x1fe1>
c0006318:	65 6e                	outsb  %gs:(%esi),(%dx)
c000631a:	74 20                	je     c000633c <FLOPPY_IRQ+0x1f98>
c000631c:	53                   	push   %ebx
c000631d:	65                   	gs
c000631e:	72 69                	jb     c0006389 <FLOPPY_IRQ+0x1fe5>
c0006320:	65                   	gs
c0006321:	73 20                	jae    c0006343 <FLOPPY_IRQ+0x1f9f>
c0006323:	4b                   	dec    %ebx
c0006324:	65                   	gs
c0006325:	79 62                	jns    c0006389 <FLOPPY_IRQ+0x1fe5>
c0006327:	6f                   	outsl  %ds:(%esi),(%dx)
c0006328:	61                   	popa   
c0006329:	72 64                	jb     c000638f <FLOPPY_IRQ+0x1feb>
c000632b:	20 50 72             	and    %dl,0x72(%eax)
c000632e:	6f                   	outsl  %ds:(%esi),(%dx)
c000632f:	67 72 61             	addr16 jb c0006393 <FLOPPY_IRQ+0x1fef>
c0006332:	6d                   	insl   (%dx),%es:(%edi)
c0006333:	6d                   	insl   (%dx),%es:(%edi)
c0006334:	69 6e 67 20 44 65 6d 	imul   $0x6d654420,0x67(%esi),%ebp
c000633b:	6f                   	outsl  %ds:(%esi),(%dx)
c000633c:	00 00                	add    %al,(%eax)
c000633e:	00 00                	add    %al,(%eax)
c0006340:	0a 77 69             	or     0x69(%edi),%dh
c0006343:	74 68                	je     c00063ad <FLOPPY_IRQ+0x2009>
c0006345:	20 61 20             	and    %ah,0x20(%ecx)
c0006348:	62 61 73             	bound  %esp,0x73(%ecx)
c000634b:	69 63 20 43 6f 6d 6d 	imul   $0x6d6d6f43,0x20(%ebx),%esp
c0006352:	61                   	popa   
c0006353:	6e                   	outsb  %ds:(%esi),(%dx)
c0006354:	64 20 4c 69 6e       	and    %cl,%fs:0x6e(%ecx,%ebp,2)
c0006359:	65 20 49 6e          	and    %cl,%gs:0x6e(%ecx)
c000635d:	74 65                	je     c00063c4 <FLOPPY_IRQ+0x2020>
c000635f:	72 66                	jb     c00063c7 <FLOPPY_IRQ+0x2023>
c0006361:	61                   	popa   
c0006362:	63 65 20             	arpl   %sp,0x20(%ebp)
c0006365:	28 43 4c             	sub    %al,0x4c(%ebx)
c0006368:	49                   	dec    %ecx
c0006369:	29 0a                	sub    %ecx,(%edx)
c000636b:	0a 00                	or     (%eax),%al
c000636d:	00 00                	add    %al,(%eax)
c000636f:	00 20                	add    %ah,(%eax)
c0006371:	2d 20 65 78 69       	sub    $0x69786520,%eax
c0006376:	74 3a                	je     c00063b2 <FLOPPY_IRQ+0x200e>
c0006378:	20 71 75             	and    %dh,0x75(%ecx)
c000637b:	69 74 73 20 61 6e 64 	imul   $0x20646e61,0x20(%ebx,%esi,2),%esi
c0006382:	20 
c0006383:	68 61 6c 74 73       	push   $0x73746c61
c0006388:	20 74 68 65          	and    %dh,0x65(%eax,%ebp,2)
c000638c:	20 73 79             	and    %dh,0x79(%ebx)
c000638f:	73 74                	jae    c0006405 <FLOPPY_IRQ+0x2061>
c0006391:	65                   	gs
c0006392:	6d                   	insl   (%dx),%es:(%edi)
c0006393:	0a 00                	or     (%eax),%al
c0006395:	00 00                	add    %al,(%eax)
c0006397:	00 20                	add    %ah,(%eax)
c0006399:	2d 20 68 65 6c       	sub    $0x6c656820,%eax
c000639e:	70 3a                	jo     c00063da <FLOPPY_IRQ+0x2036>
c00063a0:	20 64 69 73          	and    %ah,0x73(%ecx,%ebp,2)
c00063a4:	70 6c                	jo     c0006412 <FLOPPY_IRQ+0x206e>
c00063a6:	61                   	popa   
c00063a7:	79 73                	jns    c000641c <FLOPPY_IRQ+0x2078>
c00063a9:	20 74 68 69          	and    %dh,0x69(%eax,%ebp,2)
c00063ad:	73 20                	jae    c00063cf <FLOPPY_IRQ+0x202b>
c00063af:	6d                   	insl   (%dx),%es:(%edi)
c00063b0:	65                   	gs
c00063b1:	73 73                	jae    c0006426 <FLOPPY_IRQ+0x2082>
c00063b3:	61                   	popa   
c00063b4:	67 65 0a 00          	or     %gs:(%bx,%si),%al
c00063b8:	20 2d 20 72 65 61    	and    %ch,0x61657220
c00063be:	64 3a 20             	cmp    %fs:(%eax),%ah
c00063c1:	72 65                	jb     c0006428 <FLOPPY_IRQ+0x2084>
c00063c3:	61                   	popa   
c00063c4:	64                   	fs
c00063c5:	73 20                	jae    c00063e7 <FLOPPY_IRQ+0x2043>
c00063c7:	61                   	popa   
c00063c8:	20 73 70             	and    %dh,0x70(%ebx)
c00063cb:	65 63 69 66          	arpl   %bp,%gs:0x66(%ecx)
c00063cf:	69 63 20 73 65 63 74 	imul   $0x74636573,0x20(%ebx),%esp
c00063d6:	6f                   	outsl  %ds:(%esi),(%dx)
c00063d7:	72 20                	jb     c00063f9 <FLOPPY_IRQ+0x2055>
c00063d9:	61                   	popa   
c00063da:	6e                   	outsb  %ds:(%esi),(%dx)
c00063db:	64 20 64 69 73       	and    %ah,%fs:0x73(%ecx,%ebp,2)
c00063e0:	70 6c                	jo     c000644e <FLOPPY_IRQ+0x20aa>
c00063e2:	61                   	popa   
c00063e3:	79 73                	jns    c0006458 <FLOPPY_IRQ+0x20b4>
c00063e5:	20 69 74             	and    %ch,0x74(%ecx)
c00063e8:	20 69 6e             	and    %ch,0x6e(%ecx)
c00063eb:	20 68 65             	and    %ch,0x65(%eax)
c00063ee:	78 0a                	js     c00063fa <FLOPPY_IRQ+0x2056>
c00063f0:	00 00                	add    %al,(%eax)
c00063f2:	00 00                	add    %al,(%eax)
c00063f4:	0a 54 79 70          	or     0x70(%ecx,%edi,2),%dl
c00063f8:	65 20 22             	and    %ah,%gs:(%edx)
c00063fb:	65                   	gs
c00063fc:	78 69                	js     c0006467 <FLOPPY_IRQ+0x20c3>
c00063fe:	74 22                	je     c0006422 <FLOPPY_IRQ+0x207e>
c0006400:	20 74 6f 20          	and    %dh,0x20(%edi,%ebp,2)
c0006404:	71 75                	jno    c000647b <FLOPPY_IRQ+0x20d7>
c0006406:	69 74 2c 20 22 68 65 	imul   $0x6c656822,0x20(%esp,%ebp,1),%esi
c000640d:	6c 
c000640e:	70 22                	jo     c0006432 <FLOPPY_IRQ+0x208e>
c0006410:	20 66 6f             	and    %ah,0x6f(%esi)
c0006413:	72 20                	jb     c0006435 <FLOPPY_IRQ+0x2091>
c0006415:	61                   	popa   
c0006416:	20 6c 69 73          	and    %ch,0x73(%ecx,%ebp,2)
c000641a:	74 20                	je     c000643c <FLOPPY_IRQ+0x2098>
c000641c:	6f                   	outsl  %ds:(%esi),(%dx)
c000641d:	66                   	data16
c000641e:	20 63 6f             	and    %ah,0x6f(%ebx)
c0006421:	6d                   	insl   (%dx),%es:(%edi)
c0006422:	6d                   	insl   (%dx),%es:(%edi)
c0006423:	61                   	popa   
c0006424:	6e                   	outsb  %ds:(%esi),(%dx)
c0006425:	64                   	fs
c0006426:	73 0a                	jae    c0006432 <FLOPPY_IRQ+0x208e>
c0006428:	00 00                	add    %al,(%eax)
c000642a:	00 00                	add    %al,(%eax)
c000642c:	2b 2d 2d 2d 2d 2d    	sub    0x2d2d2d2d,%ebp
c0006432:	2d 2d 2d 2d 2d       	sub    $0x2d2d2d2d,%eax
c0006437:	2d 2d 2d 2d 2d       	sub    $0x2d2d2d2d,%eax
c000643c:	2d 2d 2d 2d 2d       	sub    $0x2d2d2d2d,%eax
c0006441:	2d 2d 2d 2d 2d       	sub    $0x2d2d2d2d,%eax
c0006446:	2d 2d 2d 2d 2d       	sub    $0x2d2d2d2d,%eax
c000644b:	2d 2d 2d 2d 2d       	sub    $0x2d2d2d2d,%eax
c0006450:	2d 2d 2d 2d 2d       	sub    $0x2d2d2d2d,%eax
c0006455:	2d 2d 2d 2d 2d       	sub    $0x2d2d2d2d,%eax
c000645a:	2d 2d 2d 2d 2d       	sub    $0x2d2d2d2d,%eax
c000645f:	2d 2d 2d 2d 2d       	sub    $0x2d2d2d2d,%eax
c0006464:	2b 0a                	sub    (%edx),%ecx
c0006466:	00 00                	add    %al,(%eax)
c0006468:	0a 45 78             	or     0x78(%ebp),%al
c000646b:	69 74 20 63 6f 6d 6d 	imul   $0x616d6d6f,0x63(%eax,%eiz,1),%esi
c0006472:	61 
c0006473:	6e                   	outsb  %ds:(%esi),(%dx)
c0006474:	64 20 72 65          	and    %dh,%fs:0x65(%edx)
c0006478:	63 69 65             	arpl   %bp,0x65(%ecx)
c000647b:	76 65                	jbe    c00064e2 <FLOPPY_IRQ+0x213e>
c000647d:	64 3b 20             	cmp    %fs:(%eax),%esp
c0006480:	64                   	fs
c0006481:	65                   	gs
c0006482:	6d                   	insl   (%dx),%es:(%edi)
c0006483:	6f                   	outsl  %ds:(%esi),(%dx)
c0006484:	20 68 61             	and    %ch,0x61(%eax)
c0006487:	6c                   	insb   (%dx),%es:(%edi)
c0006488:	74 65                	je     c00064ef <FLOPPY_IRQ+0x214b>
c000648a:	64 00 20             	add    %ah,%fs:(%eax)
c000648d:	20 20                	and    %ah,(%eax)
c000648f:	20 5f 5f             	and    %bl,0x5f(%edi)
c0006492:	20 20                	and    %ah,(%eax)
c0006494:	5f                   	pop    %edi
c0006495:	5f                   	pop    %edi
c0006496:	5f                   	pop    %edi
c0006497:	5f                   	pop    %edi
c0006498:	5f                   	pop    %edi
c0006499:	5f                   	pop    %edi
c000649a:	5f                   	pop    %edi
c000649b:	20 20                	and    %ah,(%eax)
c000649d:	5f                   	pop    %edi
c000649e:	5f                   	pop    %edi
c000649f:	5f                   	pop    %edi
c00064a0:	5f                   	pop    %edi
c00064a1:	5f                   	pop    %edi
c00064a2:	0a 20                	or     (%eax),%ah
c00064a4:	20 20                	and    %ah,(%eax)
c00064a6:	2f                   	das    
c00064a7:	20 20                	and    %ah,(%eax)
c00064a9:	7c 2f                	jl     c00064da <FLOPPY_IRQ+0x2136>
c00064ab:	20 20                	and    %ah,(%eax)
c00064ad:	2f                   	das    
c00064ae:	20 5f 5f             	and    %bl,0x5f(%edi)
c00064b1:	20 5c 2f 20          	and    %bl,0x20(%edi,%ebp,1)
c00064b5:	5f                   	pop    %edi
c00064b6:	5f                   	pop    %edi
c00064b7:	5f                   	pop    %edi
c00064b8:	2f                   	das    
c00064b9:	0a 20                	or     (%eax),%ah
c00064bb:	20 2f                	and    %ch,(%edi)
c00064bd:	20 2f                	and    %ch,(%edi)
c00064bf:	7c 5f                	jl     c0006520 <FLOPPY_IRQ+0x217c>
c00064c1:	2f                   	das    
c00064c2:	20 2f                	and    %ch,(%edi)
c00064c4:	20 2f                	and    %ch,(%edi)
c00064c6:	20 2f                	and    %ch,(%edi)
c00064c8:	20 2f                	and    %ch,(%edi)
c00064ca:	5c                   	pop    %esp
c00064cb:	5f                   	pop    %edi
c00064cc:	5f                   	pop    %edi
c00064cd:	20 5c 20 4d          	and    %bl,0x4d(%eax,%eiz,1)
c00064d1:	69 63 72 6f 63 6f 6d 	imul   $0x6d6f636f,0x72(%ebx),%esp
c00064d8:	70 75                	jo     c000654f <FLOPPY_IRQ+0x21ab>
c00064da:	74 65                	je     c0006541 <FLOPPY_IRQ+0x219d>
c00064dc:	72 20                	jb     c00064fe <FLOPPY_IRQ+0x215a>
c00064de:	4f                   	dec    %edi
c00064df:	70 65                	jo     c0006546 <FLOPPY_IRQ+0x21a2>
c00064e1:	72 61                	jb     c0006544 <FLOPPY_IRQ+0x21a0>
c00064e3:	74 69                	je     c000654e <FLOPPY_IRQ+0x21aa>
c00064e5:	6e                   	outsb  %ds:(%esi),(%dx)
c00064e6:	67 20 53 79          	and    %dl,0x79(%bp,%di)
c00064ea:	73 74                	jae    c0006560 <FLOPPY_IRQ+0x21bc>
c00064ec:	65                   	gs
c00064ed:	6d                   	insl   (%dx),%es:(%edi)
c00064ee:	20 0a                	and    %cl,(%edx)
c00064f0:	20 2f                	and    %ch,(%edi)
c00064f2:	20 2f                	and    %ch,(%edi)
c00064f4:	20 20                	and    %ah,(%eax)
c00064f6:	2f                   	das    
c00064f7:	20 2f                	and    %ch,(%edi)
c00064f9:	20 2f                	and    %ch,(%edi)
c00064fb:	5f                   	pop    %edi
c00064fc:	2f                   	das    
c00064fd:	20 2f                	and    %ch,(%edi)
c00064ff:	5f                   	pop    %edi
c0006500:	5f                   	pop    %edi
c0006501:	5f                   	pop    %edi
c0006502:	2f                   	das    
c0006503:	20 2f                	and    %ch,(%edi)
c0006505:	20 2d 2d 2d 2d 2d    	and    %ch,0x2d2d2d2d
c000650b:	2d 2d 2d 2d 2d       	sub    $0x2d2d2d2d,%eax
c0006510:	2d 2d 2d 2d 2d       	sub    $0x2d2d2d2d,%eax
c0006515:	2d 2d 2d 2d 2d       	sub    $0x2d2d2d2d,%eax
c000651a:	2d 2d 2d 2d 2d       	sub    $0x2d2d2d2d,%eax
c000651f:	2d 2d 2d 2d 2d       	sub    $0x2d2d2d2d,%eax
c0006524:	2d 0a 2f 5f 2f       	sub    $0x2f5f2f0a,%eax
c0006529:	20 20                	and    %ah,(%eax)
c000652b:	2f                   	das    
c000652c:	5f                   	pop    %edi
c000652d:	2f                   	das    
c000652e:	5c                   	pop    %esp
c000652f:	5f                   	pop    %edi
c0006530:	5f                   	pop    %edi
c0006531:	5f                   	pop    %edi
c0006532:	5f                   	pop    %edi
c0006533:	2f                   	das    
c0006534:	2f                   	das    
c0006535:	5f                   	pop    %edi
c0006536:	5f                   	pop    %edi
c0006537:	5f                   	pop    %edi
c0006538:	5f                   	pop    %edi
c0006539:	2f                   	das    
c000653a:	20 20                	and    %ah,(%eax)
c000653c:	0a 0a                	or     (%edx),%cl
c000653e:	00 00                	add    %al,(%eax)
c0006540:	2a 2a                	sub    (%edx),%ch
c0006542:	2a 20                	sub    (%eax),%ah
c0006544:	5b                   	pop    %ebx
c0006545:	69 38 36 20 48 61    	imul   $0x61482036,(%eax),%edi
c000654b:	6c                   	insb   (%dx),%es:(%edi)
c000654c:	5d                   	pop    %ebp
c000654d:	20 69 38             	and    %ch,0x38(%ecx)
c0006550:	36                   	ss
c0006551:	5f                   	pop    %edi
c0006552:	64                   	fs
c0006553:	65                   	gs
c0006554:	66 61                	popaw  
c0006556:	75 6c                	jne    c00065c4 <FLOPPY_IRQ+0x2220>
c0006558:	74 5f                	je     c00065b9 <FLOPPY_IRQ+0x2215>
c000655a:	68 61 6e 64 6c       	push   $0x6c646e61
c000655f:	65                   	gs
c0006560:	72 3a                	jb     c000659c <FLOPPY_IRQ+0x21f8>
c0006562:	20 55 6e             	and    %dl,0x6e(%ebp)
c0006565:	68 61 6e 64 6c       	push   $0x6c646e61
c000656a:	65 64 20 45 78       	gs and %al,%fs:%gs:0x78(%ebp)
c000656f:	63 65 70             	arpl   %sp,0x70(%ebp)
c0006572:	74 69                	je     c00065dd <FLOPPY_IRQ+0x2239>
c0006574:	6f                   	outsl  %ds:(%esi),(%dx)
c0006575:	6e                   	outsb  %ds:(%esi),(%dx)
c0006576:	00 00                	add    %al,(%eax)
c0006578:	57                   	push   %edi
c0006579:	65 20 61 70          	and    %ah,%gs:0x70(%ecx)
c000657d:	6f                   	outsl  %ds:(%esi),(%dx)
c000657e:	6c                   	insb   (%dx),%es:(%edi)
c000657f:	6f                   	outsl  %ds:(%esi),(%dx)
c0006580:	67 69 7a 65 2c 20 4d 	imul   $0x4f4d202c,0x65(%bp,%si),%edi
c0006587:	4f 
c0006588:	53                   	push   %ebx
c0006589:	20 68 61             	and    %ch,0x61(%eax)
c000658c:	73 20                	jae    c00065ae <FLOPPY_IRQ+0x220a>
c000658e:	65 6e                	outsb  %gs:(%esi),(%dx)
c0006590:	63 6f 75             	arpl   %bp,0x75(%edi)
c0006593:	6e                   	outsb  %ds:(%esi),(%dx)
c0006594:	74 65                	je     c00065fb <FLOPPY_IRQ+0x2257>
c0006596:	72 65                	jb     c00065fd <FLOPPY_IRQ+0x2259>
c0006598:	64 20 61 20          	and    %ah,%fs:0x20(%ecx)
c000659c:	70 72                	jo     c0006610 <FLOPPY_IRQ+0x226c>
c000659e:	6f                   	outsl  %ds:(%esi),(%dx)
c000659f:	62 6c 65 6d          	bound  %ebp,0x6d(%ebp,%eiz,2)
c00065a3:	20 61 6e             	and    %ah,0x6e(%ecx)
c00065a6:	64 20 68 61          	and    %ch,%fs:0x61(%eax)
c00065aa:	73 20                	jae    c00065cc <FLOPPY_IRQ+0x2228>
c00065ac:	62 65 65             	bound  %esp,0x65(%ebp)
c00065af:	6e                   	outsb  %ds:(%esi),(%dx)
c00065b0:	20 73 68             	and    %dh,0x68(%ebx)
c00065b3:	75 74                	jne    c0006629 <FLOPPY_IRQ+0x2285>
c00065b5:	20 64 6f 77          	and    %ah,0x77(%edi,%ebp,2)
c00065b9:	6e                   	outsb  %ds:(%esi),(%dx)
c00065ba:	0a 74 6f 20          	or     0x20(%edi,%ebp,2),%dh
c00065be:	70 72                	jo     c0006632 <FLOPPY_IRQ+0x228e>
c00065c0:	65                   	gs
c00065c1:	76 65                	jbe    c0006628 <FLOPPY_IRQ+0x2284>
c00065c3:	6e                   	outsb  %ds:(%esi),(%dx)
c00065c4:	74 20                	je     c00065e6 <FLOPPY_IRQ+0x2242>
c00065c6:	64                   	fs
c00065c7:	61                   	popa   
c00065c8:	6d                   	insl   (%dx),%es:(%edi)
c00065c9:	61                   	popa   
c00065ca:	67 65 20 74 6f       	and    %dh,%gs:0x6f(%si)
c00065cf:	20 79 6f             	and    %bh,0x6f(%ecx)
c00065d2:	75 72                	jne    c0006646 <FLOPPY_IRQ+0x22a2>
c00065d4:	20 63 6f             	and    %ah,0x6f(%ebx)
c00065d7:	6d                   	insl   (%dx),%es:(%edi)
c00065d8:	70 75                	jo     c000664f <FLOPPY_IRQ+0x22ab>
c00065da:	74 65                	je     c0006641 <FLOPPY_IRQ+0x229d>
c00065dc:	72 2e                	jb     c000660c <FLOPPY_IRQ+0x2268>
c00065de:	20 41 6e             	and    %al,0x6e(%ecx)
c00065e1:	79 20                	jns    c0006603 <FLOPPY_IRQ+0x225f>
c00065e3:	75 6e                	jne    c0006653 <FLOPPY_IRQ+0x22af>
c00065e5:	73 61                	jae    c0006648 <FLOPPY_IRQ+0x22a4>
c00065e7:	76 65                	jbe    c000664e <FLOPPY_IRQ+0x22aa>
c00065e9:	64 20 77 6f          	and    %dh,%fs:0x6f(%edi)
c00065ed:	72 6b                	jb     c000665a <FLOPPY_IRQ+0x22b6>
c00065ef:	20 6d 69             	and    %ch,0x69(%ebp)
c00065f2:	67 68 74 20 62 65    	addr16 push $0x65622074
c00065f8:	20 6c 6f 73          	and    %ch,0x73(%edi,%ebp,2)
c00065fc:	74 2e                	je     c000662c <FLOPPY_IRQ+0x2288>
c00065fe:	0a 57 65             	or     0x65(%edi),%dl
c0006601:	20 61 72             	and    %ah,0x72(%ecx)
c0006604:	65 20 73 6f          	and    %dh,%gs:0x6f(%ebx)
c0006608:	72 72                	jb     c000667c <FLOPPY_IRQ+0x22d8>
c000660a:	79 20                	jns    c000662c <FLOPPY_IRQ+0x2288>
c000660c:	66 6f                	outsw  %ds:(%esi),(%dx)
c000660e:	72 20                	jb     c0006630 <FLOPPY_IRQ+0x228c>
c0006610:	74 68                	je     c000667a <FLOPPY_IRQ+0x22d6>
c0006612:	65 20 69 6e          	and    %ch,%gs:0x6e(%ecx)
c0006616:	63 6f 6e             	arpl   %bp,0x6e(%edi)
c0006619:	76 65                	jbe    c0006680 <FLOPPY_IRQ+0x22dc>
c000661b:	6e                   	outsb  %ds:(%esi),(%dx)
c000661c:	69 65 6e 63 65 20 74 	imul   $0x74206563,0x6e(%ebp),%esp
c0006623:	68 69 73 20 6d       	push   $0x6d207369
c0006628:	69 67 68 74 20 68 61 	imul   $0x61682074,0x68(%edi),%esp
c000662f:	76 65                	jbe    c0006696 <FLOPPY_IRQ+0x22f2>
c0006631:	20 63 61             	and    %ah,0x61(%ebx)
c0006634:	75 73                	jne    c00066a9 <FLOPPY_IRQ+0x2305>
c0006636:	65 64 2e 0a 0a       	gs fs or %cs:%fs:%gs:(%edx),%cl
c000663b:	50                   	push   %eax
c000663c:	6c                   	insb   (%dx),%es:(%edi)
c000663d:	65                   	gs
c000663e:	61                   	popa   
c000663f:	73 65                	jae    c00066a6 <FLOPPY_IRQ+0x2302>
c0006641:	20 72 65             	and    %dh,0x65(%edx)
c0006644:	70 6f                	jo     c00066b5 <FLOPPY_IRQ+0x2311>
c0006646:	72 74                	jb     c00066bc <FLOPPY_IRQ+0x2318>
c0006648:	20 74 68 65          	and    %dh,0x65(%eax,%ebp,2)
c000664c:	20 66 6f             	and    %ah,0x6f(%esi)
c000664f:	6c                   	insb   (%dx),%es:(%edi)
c0006650:	6c                   	insb   (%dx),%es:(%edi)
c0006651:	6f                   	outsl  %ds:(%esi),(%dx)
c0006652:	77 69                	ja     c00066bd <FLOPPY_IRQ+0x2319>
c0006654:	6e                   	outsb  %ds:(%esi),(%dx)
c0006655:	67 20 69 6e          	and    %ch,0x6e(%bx,%di)
c0006659:	66 6f                	outsw  %ds:(%esi),(%dx)
c000665b:	72 6d                	jb     c00066ca <FLOPPY_IRQ+0x2326>
c000665d:	61                   	popa   
c000665e:	74 69                	je     c00066c9 <FLOPPY_IRQ+0x2325>
c0006660:	6f                   	outsl  %ds:(%esi),(%dx)
c0006661:	6e                   	outsb  %ds:(%esi),(%dx)
c0006662:	20 61 6e             	and    %ah,0x6e(%ecx)
c0006665:	64 20 72 65          	and    %dh,%fs:0x65(%edx)
c0006669:	73 74                	jae    c00066df <FLOPPY_IRQ+0x233b>
c000666b:	61                   	popa   
c000666c:	72 74                	jb     c00066e2 <FLOPPY_IRQ+0x233e>
c000666e:	20 79 6f             	and    %bh,0x6f(%ecx)
c0006671:	75 72                	jne    c00066e5 <FLOPPY_IRQ+0x2341>
c0006673:	20 63 6f             	and    %ah,0x6f(%ebx)
c0006676:	6d                   	insl   (%dx),%es:(%edi)
c0006677:	70 75                	jo     c00066ee <FLOPPY_IRQ+0x234a>
c0006679:	74 65                	je     c00066e0 <FLOPPY_IRQ+0x233c>
c000667b:	72 2e                	jb     c00066ab <FLOPPY_IRQ+0x2307>
c000667d:	0a 54 68 65          	or     0x65(%eax,%ebp,2),%dl
c0006681:	20 73 79             	and    %dh,0x79(%ebx)
c0006684:	73 74                	jae    c00066fa <FLOPPY_IRQ+0x2356>
c0006686:	65                   	gs
c0006687:	6d                   	insl   (%dx),%es:(%edi)
c0006688:	20 68 61             	and    %ch,0x61(%eax)
c000668b:	73 20                	jae    c00066ad <FLOPPY_IRQ+0x2309>
c000668d:	62 65 65             	bound  %esp,0x65(%ebp)
c0006690:	6e                   	outsb  %ds:(%esi),(%dx)
c0006691:	20 68 61             	and    %ch,0x61(%eax)
c0006694:	6c                   	insb   (%dx),%es:(%edi)
c0006695:	74 65                	je     c00066fc <FLOPPY_IRQ+0x2358>
c0006697:	64 2e 0a 0a          	fs or  %cs:%fs:(%edx),%cl
	...

Disassembly of section .rodata.str1.1:

c000669c <.rodata.str1.1>:
c000669c:	0a 43 6f             	or     0x6f(%ebx),%al
c000669f:	6d                   	insl   (%dx),%es:(%edi)
c00066a0:	6d                   	insl   (%dx),%es:(%edi)
c00066a1:	61                   	popa   
c00066a2:	6e                   	outsb  %ds:(%esi),(%dx)
c00066a3:	64 3e 20 00          	fs and %al,%ds:%fs:(%eax)
c00066a7:	0a 0d 53 65 63 74    	or     0x74636553,%cl
c00066ad:	6f                   	outsl  %ds:(%esi),(%dx)
c00066ae:	72 20                	jb     c00066d0 <FLOPPY_IRQ+0x232c>
c00066b0:	25 69 20 63 6f       	and    $0x6f632069,%eax
c00066b5:	6e                   	outsb  %ds:(%esi),(%dx)
c00066b6:	74 65                	je     c000671d <FLOPPY_IRQ+0x2379>
c00066b8:	6e                   	outsb  %ds:(%esi),(%dx)
c00066b9:	74 73                	je     c000672e <FLOPPY_IRQ+0x238a>
c00066bb:	3a 0a                	cmp    (%edx),%cl
c00066bd:	0a 0d 00 30 78 25    	or     0x25783000,%cl
c00066c3:	78 20                	js     c00066e5 <FLOPPY_IRQ+0x2341>
c00066c5:	00 0a                	add    %cl,(%edx)
c00066c7:	0d 50 72 65 73       	or     $0x73657250,%eax
c00066cc:	73 20                	jae    c00066ee <FLOPPY_IRQ+0x234a>
c00066ce:	61                   	popa   
c00066cf:	6e                   	outsb  %ds:(%esi),(%dx)
c00066d0:	79 20                	jns    c00066f2 <FLOPPY_IRQ+0x234e>
c00066d2:	6b 65 79 20          	imul   $0x20,0x79(%ebp),%esp
c00066d6:	74 6f                	je     c0006747 <FLOPPY_IRQ+0x23a3>
c00066d8:	20 63 6f             	and    %ah,0x6f(%ebx)
c00066db:	6e                   	outsb  %ds:(%esi),(%dx)
c00066dc:	74 69                	je     c0006747 <FLOPPY_IRQ+0x23a3>
c00066de:	6e                   	outsb  %ds:(%esi),(%dx)
c00066df:	75 65                	jne    c0006746 <FLOPPY_IRQ+0x23a2>
c00066e1:	0a 0d 00 0a 0d 44    	or     0x440d0a00,%cl
c00066e7:	6f                   	outsl  %ds:(%esi),(%dx)
c00066e8:	6e                   	outsb  %ds:(%esi),(%dx)
c00066e9:	65 2e 00 65 78       	gs add %ah,%cs:%gs:0x78(%ebp)
c00066ee:	69 74 00 63 6c 73 00 	imul   $0x6800736c,0x63(%eax,%eax,1),%esi
c00066f5:	68 
c00066f6:	65                   	gs
c00066f7:	6c                   	insb   (%dx),%es:(%edi)
c00066f8:	70 00                	jo     c00066fa <FLOPPY_IRQ+0x2356>
c00066fa:	53                   	push   %ebx
c00066fb:	75 70                	jne    c000676d <FLOPPY_IRQ+0x23c9>
c00066fd:	70 6f                	jo     c000676e <FLOPPY_IRQ+0x23ca>
c00066ff:	72 74                	jb     c0006775 <FLOPPY_IRQ+0x23d1>
c0006701:	65 64 20 63 6f       	gs and %ah,%fs:%gs:0x6f(%ebx)
c0006706:	6d                   	insl   (%dx),%es:(%edi)
c0006707:	6d                   	insl   (%dx),%es:(%edi)
c0006708:	61                   	popa   
c0006709:	6e                   	outsb  %ds:(%esi),(%dx)
c000670a:	64                   	fs
c000670b:	73 3a                	jae    c0006747 <FLOPPY_IRQ+0x23a3>
c000670d:	0a 00                	or     (%eax),%al
c000670f:	20 2d 20 63 6c 73    	and    %ch,0x736c6320
c0006715:	3a 20                	cmp    (%eax),%ah
c0006717:	63 6c 65 61          	arpl   %bp,0x61(%ebp,%eiz,2)
c000671b:	72 73                	jb     c0006790 <FLOPPY_IRQ+0x23ec>
c000671d:	20 74 68 65          	and    %dh,0x65(%eax,%ebp,2)
c0006721:	20 64 69 73          	and    %ah,0x73(%ecx,%ebp,2)
c0006725:	70 6c                	jo     c0006793 <FLOPPY_IRQ+0x23ef>
c0006727:	61                   	popa   
c0006728:	79 0a                	jns    c0006734 <FLOPPY_IRQ+0x2390>
c000672a:	00 72 65             	add    %dh,0x65(%edx)
c000672d:	61                   	popa   
c000672e:	64 00 0a             	add    %cl,%fs:(%edx)
c0006731:	55                   	push   %ebp
c0006732:	6e                   	outsb  %ds:(%esi),(%dx)
c0006733:	6b 6f 77 6e          	imul   $0x6e,0x77(%edi),%ebp
c0006737:	20 63 6f             	and    %ah,0x6f(%ebx)
c000673a:	6d                   	insl   (%dx),%es:(%edi)
c000673b:	6d                   	insl   (%dx),%es:(%edi)
c000673c:	61                   	popa   
c000673d:	6e                   	outsb  %ds:(%esi),(%dx)
c000673e:	64 00 4f 53          	add    %cl,%fs:0x53(%edi)
c0006742:	44                   	inc    %esp
c0006743:	65                   	gs
c0006744:	76 20                	jbe    c0006766 <FLOPPY_IRQ+0x23c2>
c0006746:	53                   	push   %ebx
c0006747:	65                   	gs
c0006748:	72 69                	jb     c00067b3 <FLOPPY_IRQ+0x240f>
c000674a:	65                   	gs
c000674b:	73 20                	jae    c000676d <FLOPPY_IRQ+0x23c9>
c000674d:	4b                   	dec    %ebx
c000674e:	65                   	gs
c000674f:	79 62                	jns    c00067b3 <FLOPPY_IRQ+0x240f>
c0006751:	6f                   	outsl  %ds:(%esi),(%dx)
c0006752:	61                   	popa   
c0006753:	72 64                	jb     c00067b9 <FLOPPY_IRQ+0x2415>
c0006755:	20 44 65 6d          	and    %al,0x6d(%ebp,%eiz,2)
c0006759:	6f                   	outsl  %ds:(%esi),(%dx)
c000675a:	00 41 76             	add    %al,0x76(%ecx)
c000675d:	61                   	popa   
c000675e:	69 6c 61 62 6c 65 00 	imul   $0x5200656c,0x62(%ecx,%eiz,2),%ebp
c0006765:	52 
c0006766:	65                   	gs
c0006767:	73 65                	jae    c00067ce <FLOPPY_IRQ+0x242a>
c0006769:	72 76                	jb     c00067e1 <FLOPPY_IRQ+0x243d>
c000676b:	65 64 00 41 43       	gs add %al,%fs:%gs:0x43(%ecx)
c0006770:	50                   	push   %eax
c0006771:	49                   	dec    %ecx
c0006772:	20 52 65             	and    %dl,0x65(%edx)
c0006775:	63 6c 61 69          	arpl   %bp,0x69(%ecx,%eiz,2)
c0006779:	6d                   	insl   (%dx),%es:(%edi)
c000677a:	00 41 43             	add    %al,0x43(%ecx)
c000677d:	50                   	push   %eax
c000677e:	49                   	dec    %ecx
c000677f:	20 4e 56             	and    %cl,0x56(%esi)
c0006782:	53                   	push   %ebx
c0006783:	20 4d 65             	and    %cl,0x65(%ebp)
c0006786:	6d                   	insl   (%dx),%es:(%edi)
c0006787:	6f                   	outsl  %ds:(%esi),(%dx)
c0006788:	72 79                	jb     c0006803 <FLOPPY_IRQ+0x245f>
c000678a:	00 44 69 76          	add    %al,0x76(%ecx,%ebp,2)
c000678e:	69 64 65 20 62 79 20 	imul   $0x30207962,0x20(%ebp,%eiz,2),%esp
c0006795:	30 
c0006796:	00 53 69             	add    %dl,0x69(%ebx)
c0006799:	6e                   	outsb  %ds:(%esi),(%dx)
c000679a:	67 6c                	insb   (%dx),%es:(%di)
c000679c:	65 20 73 74          	and    %dh,%gs:0x74(%ebx)
c00067a0:	65                   	gs
c00067a1:	70 00                	jo     c00067a3 <FLOPPY_IRQ+0x23ff>
c00067a3:	4e                   	dec    %esi
c00067a4:	4d                   	dec    %ebp
c00067a5:	49                   	dec    %ecx
c00067a6:	20 74 72 61          	and    %dh,0x61(%edx,%esi,2)
c00067aa:	70 00                	jo     c00067ac <FLOPPY_IRQ+0x2408>
c00067ac:	42                   	inc    %edx
c00067ad:	72 65                	jb     c0006814 <FLOPPY_IRQ+0x2470>
c00067af:	61                   	popa   
c00067b0:	6b 70 6f 69          	imul   $0x69,0x6f(%eax),%esi
c00067b4:	6e                   	outsb  %ds:(%esi),(%dx)
c00067b5:	74 20                	je     c00067d7 <FLOPPY_IRQ+0x2433>
c00067b7:	74 72                	je     c000682b <FLOPPY_IRQ+0x2487>
c00067b9:	61                   	popa   
c00067ba:	70 00                	jo     c00067bc <FLOPPY_IRQ+0x2418>
c00067bc:	4f                   	dec    %edi
c00067bd:	76 65                	jbe    c0006824 <FLOPPY_IRQ+0x2480>
c00067bf:	72 66                	jb     c0006827 <FLOPPY_IRQ+0x2483>
c00067c1:	6c                   	insb   (%dx),%es:(%edi)
c00067c2:	6f                   	outsl  %ds:(%esi),(%dx)
c00067c3:	77 20                	ja     c00067e5 <FLOPPY_IRQ+0x2441>
c00067c5:	74 72                	je     c0006839 <FLOPPY_IRQ+0x2495>
c00067c7:	61                   	popa   
c00067c8:	70 00                	jo     c00067ca <FLOPPY_IRQ+0x2426>
c00067ca:	42                   	inc    %edx
c00067cb:	6f                   	outsl  %ds:(%esi),(%dx)
c00067cc:	75 6e                	jne    c000683c <FLOPPY_IRQ+0x2498>
c00067ce:	64                   	fs
c00067cf:	73 20                	jae    c00067f1 <FLOPPY_IRQ+0x244d>
c00067d1:	63 68 65             	arpl   %bp,0x65(%eax)
c00067d4:	63 6b 20             	arpl   %bp,0x20(%ebx)
c00067d7:	66 61                	popaw  
c00067d9:	75 6c                	jne    c0006847 <FLOPPY_IRQ+0x24a3>
c00067db:	74 00                	je     c00067dd <FLOPPY_IRQ+0x2439>
c00067dd:	49                   	dec    %ecx
c00067de:	6e                   	outsb  %ds:(%esi),(%dx)
c00067df:	76 61                	jbe    c0006842 <FLOPPY_IRQ+0x249e>
c00067e1:	6c                   	insb   (%dx),%es:(%edi)
c00067e2:	69 64 20 6f 70 63 6f 	imul   $0x646f6370,0x6f(%eax,%eiz,1),%esp
c00067e9:	64 
c00067ea:	65 00 44 65 76       	add    %al,%gs:0x76(%ebp,%eiz,2)
c00067ef:	69 63 65 20 6e 6f 74 	imul   $0x746f6e20,0x65(%ebx),%esp
c00067f6:	20 66 6f             	and    %ah,0x6f(%esi)
c00067f9:	75 6e                	jne    c0006869 <FLOPPY_IRQ+0x24c5>
c00067fb:	64 00 44 6f 75       	add    %al,%fs:0x75(%edi,%ebp,2)
c0006800:	62 6c 65 20          	bound  %ebp,0x20(%ebp,%eiz,2)
c0006804:	66 61                	popaw  
c0006806:	75 6c                	jne    c0006874 <FLOPPY_IRQ+0x24d0>
c0006808:	74 00                	je     c000680a <FLOPPY_IRQ+0x2466>
c000680a:	49                   	dec    %ecx
c000680b:	6e                   	outsb  %ds:(%esi),(%dx)
c000680c:	76 61                	jbe    c000686f <FLOPPY_IRQ+0x24cb>
c000680e:	6c                   	insb   (%dx),%es:(%edi)
c000680f:	69 64 20 54 53 53 00 	imul   $0x49005353,0x54(%eax,%eiz,1),%esp
c0006816:	49 
c0006817:	6e                   	outsb  %ds:(%esi),(%dx)
c0006818:	76 61                	jbe    c000687b <FLOPPY_IRQ+0x24d7>
c000681a:	6c                   	insb   (%dx),%es:(%edi)
c000681b:	69 64 20 73 65 67 6d 	imul   $0x656d6765,0x73(%eax,%eiz,1),%esp
c0006822:	65 
c0006823:	6e                   	outsb  %ds:(%esi),(%dx)
c0006824:	74 00                	je     c0006826 <FLOPPY_IRQ+0x2482>
c0006826:	53                   	push   %ebx
c0006827:	74 61                	je     c000688a <FLOPPY_IRQ+0x24e6>
c0006829:	63 6b 20             	arpl   %bp,0x20(%ebx)
c000682c:	66 61                	popaw  
c000682e:	75 6c                	jne    c000689c <FLOPPY_IRQ+0x24f8>
c0006830:	74 00                	je     c0006832 <FLOPPY_IRQ+0x248e>
c0006832:	47                   	inc    %edi
c0006833:	65 6e                	outsb  %gs:(%esi),(%dx)
c0006835:	65                   	gs
c0006836:	72 61                	jb     c0006899 <FLOPPY_IRQ+0x24f5>
c0006838:	6c                   	insb   (%dx),%es:(%edi)
c0006839:	20 50 72             	and    %dl,0x72(%eax)
c000683c:	6f                   	outsl  %ds:(%esi),(%dx)
c000683d:	74 65                	je     c00068a4 <FLOPPY_IRQ+0x2500>
c000683f:	63 74 69 6f          	arpl   %si,0x6f(%ecx,%ebp,2)
c0006843:	6e                   	outsb  %ds:(%esi),(%dx)
c0006844:	20 46 61             	and    %al,0x61(%esi)
c0006847:	75 6c                	jne    c00068b5 <FLOPPY_IRQ+0x2511>
c0006849:	74 00                	je     c000684b <FLOPPY_IRQ+0x24a7>
c000684b:	50                   	push   %eax
c000684c:	61                   	popa   
c000684d:	67 65 20 46 61       	and    %al,%gs:0x61(%bp)
c0006852:	75 6c                	jne    c00068c0 <FLOPPY_IRQ+0x251c>
c0006854:	74 00                	je     c0006856 <FLOPPY_IRQ+0x24b2>
c0006856:	46                   	inc    %esi
c0006857:	50                   	push   %eax
c0006858:	55                   	push   %ebp
c0006859:	20 46 61             	and    %al,0x61(%esi)
c000685c:	75 6c                	jne    c00068ca <FLOPPY_IRQ+0x2526>
c000685e:	74 00                	je     c0006860 <FLOPPY_IRQ+0x24bc>
c0006860:	41                   	inc    %ecx
c0006861:	6c                   	insb   (%dx),%es:(%edi)
c0006862:	69 67 6e 6d 65 6e 74 	imul   $0x746e656d,0x6e(%edi),%esp
c0006869:	20 43 68             	and    %al,0x68(%ebx)
c000686c:	65 63 6b 00          	arpl   %bp,%gs:0x0(%ebx)
c0006870:	4d                   	dec    %ebp
c0006871:	61                   	popa   
c0006872:	63 68 69             	arpl   %bp,0x69(%eax)
c0006875:	6e                   	outsb  %ds:(%esi),(%dx)
c0006876:	65 20 43 68          	and    %al,%gs:0x68(%ebx)
c000687a:	65 63 6b 00          	arpl   %bp,%gs:0x0(%ebx)
c000687e:	46                   	inc    %esi
c000687f:	50                   	push   %eax
c0006880:	55                   	push   %ebp
c0006881:	20 53 49             	and    %dl,0x49(%ebx)
c0006884:	4d                   	dec    %ebp
c0006885:	44                   	inc    %esp
c0006886:	20 66 61             	and    %ah,0x61(%esi)
c0006889:	75 6c                	jne    c00068f7 <FLOPPY_IRQ+0x2553>
c000688b:	74 00                	je     c000688d <FLOPPY_IRQ+0x24e9>
c000688d:	2a 2a                	sub    (%edx),%ch
c000688f:	2a 20                	sub    (%eax),%ah
c0006891:	53                   	push   %ebx
c0006892:	54                   	push   %esp
c0006893:	4f                   	dec    %edi
c0006894:	50                   	push   %eax
c0006895:	3a 20                	cmp    (%eax),%ah
c0006897:	25                   	.byte 0x25
c0006898:	73 00                	jae    c000689a <FLOPPY_IRQ+0x24f6>

Disassembly of section .data:

c0007000 <bchars>:
c0007000:	30 31                	xor    %dh,(%ecx)
c0007002:	32 33                	xor    (%ebx),%dh
c0007004:	34 35                	xor    $0x35,%al
c0007006:	36                   	ss
c0007007:	37                   	aaa    
c0007008:	38 39                	cmp    %bh,(%ecx)
c000700a:	41                   	inc    %ecx
c000700b:	42                   	inc    %edx
c000700c:	43                   	inc    %ebx
c000700d:	44                   	inc    %esp
c000700e:	45                   	inc    %ebp
c000700f:	46                   	inc    %esi

c0007010 <video_memory>:
c0007010:	00 80 0b 00 8c 64    	add    %al,0x648c000b(%eax)

c0007014 <logo>:
c0007014:	8c 64 00 c0          	mov    %fs,-0x40(%eax,%eax,1)

c0007018 <strMemoryTypes>:
c0007018:	5b                   	pop    %ebx
c0007019:	67 00 c0             	addr16 add %al,%al
c000701c:	65                   	gs
c000701d:	67 00 c0             	addr16 add %al,%al
c0007020:	6e                   	outsb  %ds:(%esi),(%dx)
c0007021:	67 00 c0             	addr16 add %al,%al
c0007024:	7b 67                	jnp    c000708d <strMemoryTypes+0x75>
c0007026:	00 c0                	add    %al,%al

Disassembly of section .bss:

c0008000 <tbuf>:
	...

c0008020 <_ctype>:
	...

c0008021 <_color>:
	...

c0008022 <cursor_y>:
	...

c0008023 <cursor_x>:
	...

c0008024 <ticks.1460>:
	...

c0008040 <vender.1068>:
	...

c0008060 <_gdtr>:
	...

c0008068 <_gdt>:
	...

c0008080 <_idtr>:
	...

c00080a0 <_idt>:
	...

c00088a0 <_pit_bIsInit>:
c00088a0:	00 00                	add    %al,(%eax)
	...

c00088a4 <_pit_ticks>:
c00088a4:	00 00                	add    %al,(%eax)
	...

c00088a8 <_mmngr_memory_map>:
c00088a8:	00 00                	add    %al,(%eax)
	...

c00088ac <_mmngr_max_blocks>:
c00088ac:	00 00                	add    %al,(%eax)
	...

c00088b0 <_mmngr_used_blocks>:
c00088b0:	00 00                	add    %al,(%eax)
	...

c00088b4 <_mmngr_memory_size>:
c00088b4:	00 00                	add    %al,(%eax)
	...

c00088b8 <_cur_pdbr>:
c00088b8:	00 00                	add    %al,(%eax)
	...

c00088bc <_cur_directory>:
c00088bc:	00 00                	add    %al,(%eax)
	...

c00088c0 <_kkybrd_disable>:
	...

c00088c1 <_kkybrd_resend_res>:
	...

c00088c2 <_kkybrd_diag_res>:
	...

c00088c3 <_kkybrd_bat_res>:
	...

c00088c4 <_ctrl>:
	...

c00088c5 <_alt>:
	...

c00088c6 <_shift>:
	...

c00088c7 <_capslock>:
	...

c00088c8 <_scrolllock>:
	...

c00088c9 <_numlock>:
	...

c00088ca <_scancode>:
	...

c00088cb <_FloppyDiskIRQ>:
	...

c00088cc <_CurrentDrive>:
	...

Disassembly of section .comment:

00000000 <.comment>:
   0:	47                   	inc    %edi
   1:	43                   	inc    %ebx
   2:	43                   	inc    %ebx
   3:	3a 20                	cmp    (%eax),%ah
   5:	28 47 4e             	sub    %al,0x4e(%edi)
   8:	55                   	push   %ebp
   9:	29 20                	sub    %esp,(%eax)
   b:	36 2e 32 2e          	ss xor %cs:%ss:(%esi),%ch
   f:	30 00                	xor    %al,(%eax)
